(iParser
Parser
p0
(dp1
S'lexicon'
p2
(iLexicon
Lexicon
p3
(dp4
S'semantic_forms'
p5
(lp6
(iSemanticNode
SemanticNode
p7
(dp8
S'category'
p9
I4
sS'is_lambda_instantiation'
p10
I01
sS'parent'
p11
NsS'idx'
p12
NsS'lambda_name'
p13
I1
sS'is_lambda'
p14
I01
sS'return_type'
p15
I6
sS'categories_used'
p16
(lp17
sS'type'
p18
I1
sS'children'
p19
(lp20
(iSemanticNode
SemanticNode
p21
(dp22
g9
I2
sg10
I01
sg11
g7
sg12
Nsg13
I2
sg14
I01
sg15
I5
sg16
(lp23
sg18
I1
sg19
(lp24
(iSemanticNode
SemanticNode
p25
(dp26
g9
I0
sg10
Nsg11
g21
sg12
I25
sg13
Nsg14
I00
sg15
I3
sg16
(lp27
I25
asg18
I6
sg19
(lp28
(iSemanticNode
SemanticNode
p29
(dp30
g9
Nsg10
I00
sg11
g25
sg12
Nsg13
I2
sg14
I01
sg15
I1
sg16
(lp31
sg18
I1
sg19
Nsba(iSemanticNode
SemanticNode
p32
(dp33
g9
Nsg10
I00
sg11
g25
sg12
Nsg13
I1
sg14
I01
sg15
I1
sg16
(lp34
sg18
I1
sg19
Nsbasbasbasba(iSemanticNode
SemanticNode
p35
(dp36
g9
I4
sg10
I01
sg11
Nsg12
Nsg13
I1
sg14
I01
sg15
I6
sg16
(lp37
sg18
I1
sg19
(lp38
(iSemanticNode
SemanticNode
p39
(dp40
g9
I2
sg10
I01
sg11
g35
sg12
Nsg13
I2
sg14
I01
sg15
I5
sg16
(lp41
sg18
I1
sg19
(lp42
(iSemanticNode
SemanticNode
p43
(dp44
g9
I0
sg10
Nsg11
g39
sg12
I26
sg13
Nsg14
I00
sg15
I3
sg16
(lp45
I26
asg18
I6
sg19
(lp46
(iSemanticNode
SemanticNode
p47
(dp48
g9
Nsg10
I00
sg11
g43
sg12
Nsg13
I1
sg14
I01
sg15
I1
sg16
(lp49
sg18
I1
sg19
Nsba(iSemanticNode
SemanticNode
p50
(dp51
g9
Nsg10
I00
sg11
g43
sg12
Nsg13
I2
sg14
I01
sg15
I1
sg16
(lp52
sg18
I1
sg19
Nsbasbasbasba(iSemanticNode
SemanticNode
p53
(dp54
g9
I6
sg10
I01
sg11
Nsg12
Nsg13
I1
sg14
I01
sg15
I7
sg16
(lp55
sg18
I1
sg19
(lp56
(iSemanticNode
SemanticNode
p57
(dp58
g9
I5
sg10
I01
sg11
g53
sg12
Nsg13
I2
sg14
I01
sg15
I6
sg16
(lp59
sg18
I1
sg19
(lp60
(iSemanticNode
SemanticNode
p61
(dp62
g9
I2
sg10
I01
sg11
g57
sg12
Nsg13
I3
sg14
I01
sg15
I5
sg16
(lp63
sg18
I1
sg19
(lp64
(iSemanticNode
SemanticNode
p65
(dp66
g9
I0
sg10
Nsg11
g61
sg12
I27
sg13
Nsg14
I00
sg15
I3
sg16
(lp67
I27
asg18
I7
sg19
(lp68
(iSemanticNode
SemanticNode
p69
(dp70
g9
Nsg10
I00
sg11
g65
sg12
Nsg13
I1
sg14
I01
sg15
I1
sg16
(lp71
sg18
I1
sg19
Nsba(iSemanticNode
SemanticNode
p72
(dp73
g9
Nsg10
I00
sg11
g65
sg12
Nsg13
I2
sg14
I01
sg15
I1
sg16
(lp74
sg18
I1
sg19
Nsba(iSemanticNode
SemanticNode
p75
(dp76
g9
Nsg10
I00
sg11
g65
sg12
Nsg13
I3
sg14
I01
sg15
I1
sg16
(lp77
sg18
I1
sg19
Nsbasbasbasbasba(iSemanticNode
SemanticNode
p78
(dp79
g9
I8
sg10
I01
sg11
Nsg12
Nsg13
I1
sg14
I01
sg15
I6
sg16
(lp80
sg18
I1
sg19
(lp81
(iSemanticNode
SemanticNode
p82
(dp83
g9
I7
sg10
I01
sg11
g78
sg12
Nsg13
I2
sg14
I01
sg15
I5
sg16
(lp84
sg18
I1
sg19
(lp85
(iSemanticNode
SemanticNode
p86
(dp87
g9
I0
sg10
Nsg11
g82
sg12
I31
sg13
Nsg14
I00
sg15
I3
sg16
(lp88
I31
asg18
I6
sg19
(lp89
(iSemanticNode
SemanticNode
p90
(dp91
g9
Nsg10
I00
sg11
g86
sg12
Nsg13
I2
sg14
I01
sg15
I1
sg16
(lp92
sg18
I1
sg19
Nsba(iSemanticNode
SemanticNode
p93
(dp94
g9
Nsg10
I00
sg11
g86
sg12
Nsg13
I1
sg14
I01
sg15
I1
sg16
(lp95
sg18
I1
sg19
Nsbasbasbasba(iSemanticNode
SemanticNode
p96
(dp97
g9
I4
sg10
I01
sg11
Nsg12
Nsg13
I1
sg14
I01
sg15
I6
sg16
(lp98
sg18
I1
sg19
(lp99
(iSemanticNode
SemanticNode
p100
(dp101
g9
I2
sg10
I01
sg11
g96
sg12
Nsg13
I2
sg14
I01
sg15
I5
sg16
(lp102
sg18
I1
sg19
(lp103
(iSemanticNode
SemanticNode
p104
(dp105
g9
I0
sg10
Nsg11
g100
sg12
I31
sg13
Nsg14
I00
sg15
I3
sg16
(lp106
I31
asg18
I6
sg19
(lp107
(iSemanticNode
SemanticNode
p108
(dp109
g9
Nsg10
I00
sg11
g104
sg12
Nsg13
I1
sg14
I01
sg15
I1
sg16
(lp110
sg18
I1
sg19
Nsba(iSemanticNode
SemanticNode
p111
(dp112
g9
Nsg10
I00
sg11
g104
sg12
Nsg13
I2
sg14
I01
sg15
I1
sg16
(lp113
sg18
I1
sg19
Nsbasbasbasba(iSemanticNode
SemanticNode
p114
(dp115
g9
I2
sg10
I01
sg11
Nsg12
Nsg13
I1
sg14
I01
sg15
I5
sg16
(lp116
sg18
I1
sg19
(lp117
(iSemanticNode
SemanticNode
p118
(dp119
g9
I0
sg10
Nsg11
g114
sg12
I30
sg13
Nsg14
I00
sg15
I3
sg16
(lp120
I30
asg18
I5
sg19
(lp121
(iSemanticNode
SemanticNode
p122
(dp123
g9
Nsg10
I00
sg11
g118
sg12
Nsg13
I1
sg14
I01
sg15
I1
sg16
(lp124
sg18
I1
sg19
Nsbasbasba(iSemanticNode
SemanticNode
p125
(dp126
g9
I9
sg10
I01
sg11
Nsg12
Nsg13
I1
sg14
I01
sg15
I14
sg16
(lp127
sg18
I1
sg19
(lp128
(iSemanticNode
SemanticNode
p129
(dp130
g9
Nsg10
I00
sg11
g125
sg12
Nsg13
I1
sg14
I01
sg15
I1
sg16
(lp131
sg18
I1
sg19
Nsbasba(iSemanticNode
SemanticNode
p132
(dp133
g9
I10
sg10
Nsg11
Nsg12
I0
sg13
Nsg14
I00
sg15
I4
sg16
(lp134
I0
asg18
I4
sg19
Nsba(iSemanticNode
SemanticNode
p135
(dp136
g9
I10
sg10
Nsg11
Nsg12
I1
sg13
Nsg14
I00
sg15
I4
sg16
(lp137
I1
asg18
I4
sg19
Nsba(iSemanticNode
SemanticNode
p138
(dp139
g9
I11
sg10
I01
sg11
Nsg12
Nsg13
I1
sg14
I01
sg15
I14
sg16
(lp140
sg18
I1
sg19
(lp141
(iSemanticNode
SemanticNode
p142
(dp143
g9
I3
sg10
Nsg11
g138
sg12
I49
sg13
Nsg14
I00
sg15
I1
sg16
(lp144
I49
asg18
I13
sg19
(lp145
(iSemanticNode
SemanticNode
p146
(dp147
g9
Nsg10
I01
sg11
g142
sg12
Nsg13
I2
sg14
I01
sg15
I9
sg16
(lp148
sg18
I1
sg19
(lp149
(iSemanticNode
SemanticNode
p150
(dp151
g9
Nsg10
Nsg11
g146
sg12
I37
sg13
Nsg14
I00
sg15
I0
sg16
(lp152
I37
asg18
I10
sg19
(lp153
(iSemanticNode
SemanticNode
p154
(dp155
g9
Nsg10
I00
sg11
g150
sg12
Nsg13
I1
sg14
I01
sg15
I1
sg16
(lp156
sg18
I1
sg19
Nsba(iSemanticNode
SemanticNode
p157
(dp158
g9
Nsg10
I00
sg11
g150
sg12
Nsg13
I2
sg14
I01
sg15
I1
sg16
(lp159
sg18
I1
sg19
Nsbasbasbasbasba(iSemanticNode
SemanticNode
p160
(dp161
g9
I12
sg10
I01
sg11
Nsg12
Nsg13
I1
sg14
I01
sg15
I10
sg16
(lp162
sg18
I1
sg19
(lp163
(iSemanticNode
SemanticNode
p164
(dp165
g9
I3
sg10
I01
sg11
g160
sg12
Nsg13
I2
sg14
I01
sg15
I9
sg16
(lp166
sg18
I1
sg19
(lp167
(iSemanticNode
SemanticNode
p168
(dp169
g9
Nsg10
Nsg11
g164
sg12
I37
sg13
Nsg14
I00
sg15
I0
sg16
(lp170
I37
asg18
I10
sg19
(lp171
(iSemanticNode
SemanticNode
p172
(dp173
g9
Nsg10
I00
sg11
g168
sg12
Nsg13
I1
sg14
I01
sg15
I1
sg16
(lp174
sg18
I1
sg19
Nsba(iSemanticNode
SemanticNode
p175
(dp176
g9
Nsg10
I00
sg11
g168
sg12
Nsg13
I2
sg14
I01
sg15
I1
sg16
(lp177
sg18
I1
sg19
Nsbasbasbasba(iSemanticNode
SemanticNode
p178
(dp179
g9
I14
sg10
I01
sg11
Nsg12
Nsg13
I1
sg14
I01
sg15
I8
sg16
(lp180
sg18
I0
sg19
(lp181
(iSemanticNode
SemanticNode
p182
(dp183
g9
I0
sg10
Nsg11
g178
sg12
I28
sg13
Nsg14
I00
sg15
I3
sg16
(lp184
I28
asg18
I8
sg19
(lp185
(iSemanticNode
SemanticNode
p186
(dp187
g9
Nsg10
I00
sg11
g182
sg12
Nsg13
I1
sg14
I01
sg15
I0
sg16
(lp188
sg18
I0
sg19
Nsbasbasba(iSemanticNode
SemanticNode
p189
(dp190
g9
I17
sg10
I01
sg11
Nsg12
Nsg13
I1
sg14
I01
sg15
I16
sg16
(lp191
sg18
I1
sg19
(lp192
(iSemanticNode
SemanticNode
p193
(dp194
g9
I16
sg10
I01
sg11
g189
sg12
Nsg13
I2
sg14
I01
sg15
I15
sg16
(lp195
sg18
I9
sg19
(lp196
(iSemanticNode
SemanticNode
p197
(dp198
g9
I0
sg10
Nsg11
g193
sg12
I28
sg13
Nsg14
I00
sg15
I3
sg16
(lp199
I28
asg18
I8
sg19
(lp200
(iSemanticNode
SemanticNode
p201
(dp202
g9
Nsg10
I00
sg11
g197
sg12
Nsg13
I2
sg14
I01
sg15
I0
sg16
(lp203
sg18
I9
sg19
(lp204
(iSemanticNode
SemanticNode
p205
(dp206
g9
Nsg10
I00
sg11
g201
sg12
Nsg13
I1
sg14
I01
sg15
I1
sg16
(lp207
sg18
I1
sg19
Nsbasbasbasbasba(iSemanticNode
SemanticNode
p208
(dp209
g9
I19
sg10
I01
sg11
Nsg12
Nsg13
I1
sg14
I01
sg15
I16
sg16
(lp210
sg18
I1
sg19
(lp211
(iSemanticNode
SemanticNode
p212
(dp213
g9
I18
sg10
I01
sg11
g208
sg12
Nsg13
I2
sg14
I01
sg15
I15
sg16
(lp214
sg18
I9
sg19
(lp215
(iSemanticNode
SemanticNode
p216
(dp217
g9
I0
sg10
Nsg11
g212
sg12
I28
sg13
Nsg14
I00
sg15
I3
sg16
(lp218
I28
asg18
I8
sg19
(lp219
(iSemanticNode
SemanticNode
p220
(dp221
g9
Nsg10
I00
sg11
g216
sg12
Nsg13
I2
sg14
I01
sg15
I0
sg16
(lp222
sg18
I9
sg19
(lp223
(iSemanticNode
SemanticNode
p224
(dp225
g9
Nsg10
I00
sg11
g220
sg12
Nsg13
I1
sg14
I01
sg15
I1
sg16
(lp226
sg18
I1
sg19
Nsbasbasbasbasba(iSemanticNode
SemanticNode
p227
(dp228
g9
I8
sg10
I01
sg11
Nsg12
Nsg13
I1
sg14
I01
sg15
I6
sg16
(lp229
sg18
I1
sg19
(lp230
(iSemanticNode
SemanticNode
p231
(dp232
g9
I7
sg10
I01
sg11
g227
sg12
Nsg13
I2
sg14
I01
sg15
I5
sg16
(lp233
sg18
I1
sg19
(lp234
(iSemanticNode
SemanticNode
p235
(dp236
g9
I0
sg10
Nsg11
g231
sg12
I28
sg13
Nsg14
I00
sg15
I3
sg16
(lp237
I28
asg18
I8
sg19
(lp238
(iSemanticNode
SemanticNode
p239
(dp240
g9
Nsg10
Nsg11
g235
sg12
I51
sg13
Nsg14
I00
sg15
I0
sg16
(lp241
I51
asg18
I10
sg19
(lp242
(iSemanticNode
SemanticNode
p243
(dp244
g9
Nsg10
I00
sg11
g239
sg12
Nsg13
I1
sg14
I01
sg15
I1
sg16
(lp245
sg18
I1
sg19
Nsba(iSemanticNode
SemanticNode
p246
(dp247
g9
Nsg10
I00
sg11
g239
sg12
Nsg13
I2
sg14
I01
sg15
I1
sg16
(lp248
sg18
I1
sg19
Nsbasbasbasbasba(iSemanticNode
SemanticNode
p249
(dp250
g9
I21
sg10
I01
sg11
Nsg12
Nsg13
I1
sg14
I01
sg15
I10
sg16
(lp251
sg18
I1
sg19
(lp252
(iSemanticNode
SemanticNode
p253
(dp254
g9
I20
sg10
I01
sg11
g249
sg12
Nsg13
I2
sg14
I01
sg15
I9
sg16
(lp255
sg18
I1
sg19
(lp256
(iSemanticNode
SemanticNode
p257
(dp258
g9
I13
sg10
Nsg11
g253
sg12
I32
sg13
Nsg14
I00
sg15
I0
sg16
(lp259
I32
asg18
I10
sg19
(lp260
(iSemanticNode
SemanticNode
p261
(dp262
g9
Nsg10
I00
sg11
g257
sg12
Nsg13
I1
sg14
I01
sg15
I1
sg16
(lp263
sg18
I1
sg19
Nsba(iSemanticNode
SemanticNode
p264
(dp265
g9
Nsg10
I00
sg11
g257
sg12
Nsg13
I2
sg14
I01
sg15
I1
sg16
(lp266
sg18
I1
sg19
Nsbasbasbasba(iSemanticNode
SemanticNode
p267
(dp268
g9
I22
sg10
I01
sg11
Nsg12
Nsg13
I1
sg14
I01
sg15
I9
sg16
(lp269
sg18
I1
sg19
(lp270
(iSemanticNode
SemanticNode
p271
(dp272
g9
I13
sg10
Nsg11
g267
sg12
I36
sg13
Nsg14
I00
sg15
I0
sg16
(lp273
I36
asg18
I9
sg19
(lp274
(iSemanticNode
SemanticNode
p275
(dp276
g9
Nsg10
I00
sg11
g271
sg12
Nsg13
I1
sg14
I01
sg15
I1
sg16
(lp277
sg18
I1
sg19
Nsbasbasba(iSemanticNode
SemanticNode
p278
(dp279
g9
I7
sg10
I01
sg11
Nsg12
Nsg13
I1
sg14
I01
sg15
I5
sg16
(lp280
sg18
I1
sg19
(lp281
(iSemanticNode
SemanticNode
p282
(dp283
g9
I0
sg10
Nsg11
g278
sg12
I29
sg13
Nsg14
I00
sg15
I3
sg16
(lp284
I29
asg18
I5
sg19
(lp285
(iSemanticNode
SemanticNode
p286
(dp287
g9
Nsg10
I00
sg11
g282
sg12
Nsg13
I1
sg14
I01
sg15
I1
sg16
(lp288
sg18
I1
sg19
Nsbasbasba(iSemanticNode
SemanticNode
p289
(dp290
g9
I15
sg10
Nsg11
Nsg12
I34
sg13
Nsg14
I00
sg15
I9
sg16
(lp291
I34
asg18
I9
sg19
Nsba(iSemanticNode
SemanticNode
p292
(dp293
g9
I15
sg10
Nsg11
Nsg12
I33
sg13
Nsg14
I00
sg15
I9
sg16
(lp294
I33
asg18
I9
sg19
Nsba(iSemanticNode
SemanticNode
p295
(dp296
g9
I15
sg10
Nsg11
Nsg12
I43
sg13
Nsg14
I00
sg15
I9
sg16
(lp297
I43
asg18
I9
sg19
Nsba(iSemanticNode
SemanticNode
p298
(dp299
g9
I24
sg10
I01
sg11
Nsg12
Nsg13
I1
sg14
I01
sg15
I12
sg16
(lp300
sg18
I0
sg19
(lp301
(iSemanticNode
SemanticNode
p302
(dp303
g9
I23
sg10
I01
sg11
g298
sg12
Nsg13
I2
sg14
I01
sg15
I11
sg16
(lp304
sg18
I0
sg19
(lp305
(iSemanticNode
SemanticNode
p306
(dp307
g9
I13
sg10
Nsg11
g302
sg12
I46
sg13
Nsg14
I00
sg15
I0
sg16
(lp308
I46
asg18
I12
sg19
(lp309
(iSemanticNode
SemanticNode
p310
(dp311
g9
Nsg10
I00
sg11
g306
sg12
Nsg13
I1
sg14
I01
sg15
I0
sg16
(lp312
sg18
I0
sg19
Nsba(iSemanticNode
SemanticNode
p313
(dp314
g9
Nsg10
I00
sg11
g306
sg12
Nsg13
I2
sg14
I01
sg15
I0
sg16
(lp315
sg18
I0
sg19
Nsbasbasbasba(iSemanticNode
SemanticNode
p316
(dp317
g9
I24
sg10
I01
sg11
Nsg12
Nsg13
I1
sg14
I01
sg15
I12
sg16
(lp318
sg18
I0
sg19
(lp319
(iSemanticNode
SemanticNode
p320
(dp321
g9
I23
sg10
I01
sg11
g316
sg12
Nsg13
I2
sg14
I01
sg15
I11
sg16
(lp322
sg18
I0
sg19
(lp323
(iSemanticNode
SemanticNode
p324
(dp325
g9
I13
sg10
Nsg11
g320
sg12
I47
sg13
Nsg14
I00
sg15
I0
sg16
(lp326
I47
asg18
I12
sg19
(lp327
(iSemanticNode
SemanticNode
p328
(dp329
g9
Nsg10
I00
sg11
g324
sg12
Nsg13
I1
sg14
I01
sg15
I0
sg16
(lp330
sg18
I0
sg19
Nsba(iSemanticNode
SemanticNode
p331
(dp332
g9
Nsg10
I00
sg11
g324
sg12
Nsg13
I2
sg14
I01
sg15
I0
sg16
(lp333
sg18
I0
sg19
Nsbasbasbasba(iSemanticNode
SemanticNode
p334
(dp335
g9
I23
sg10
I01
sg11
Nsg12
Nsg13
I1
sg14
I01
sg15
I11
sg16
(lp336
sg18
I0
sg19
(lp337
(iSemanticNode
SemanticNode
p338
(dp339
g9
I13
sg10
Nsg11
g334
sg12
I48
sg13
Nsg14
I00
sg15
I0
sg16
(lp340
I48
asg18
I11
sg19
(lp341
(iSemanticNode
SemanticNode
p342
(dp343
g9
Nsg10
I00
sg11
g338
sg12
Nsg13
I1
sg14
I01
sg15
I0
sg16
(lp344
sg18
I0
sg19
Nsbasbasba(iSemanticNode
SemanticNode
p345
(dp346
g9
I25
sg10
I01
sg11
Nsg12
Nsg13
I1
sg14
I01
sg15
I13
sg16
(lp347
sg18
I9
sg19
(lp348
(iSemanticNode
SemanticNode
p349
(dp350
g9
I3
sg10
Nsg11
g345
sg12
I49
sg13
Nsg14
I00
sg15
I1
sg16
(lp351
I49
asg18
I13
sg19
(lp352
(iSemanticNode
SemanticNode
p353
(dp354
g9
Nsg10
I01
sg11
g349
sg12
Nsg13
I2
sg14
I01
sg15
I9
sg16
(lp355
sg18
I1
sg19
(lp356
(iSemanticNode
SemanticNode
p357
(dp358
g9
Nsg10
I00
sg11
g353
sg12
Nsg13
I1
sg14
I01
sg15
I0
sg16
(lp359
sg18
I9
sg19
(lp360
(iSemanticNode
SemanticNode
p361
(dp362
g9
Nsg10
I00
sg11
g357
sg12
Nsg13
I2
sg14
I01
sg15
I1
sg16
(lp363
sg18
I1
sg19
Nsbasbasbasbasba(iSemanticNode
SemanticNode
p364
(dp365
g9
I12
sg10
I01
sg11
Nsg12
Nsg13
I1
sg14
I01
sg15
I13
sg16
(lp366
sg18
I9
sg19
(lp367
(iSemanticNode
SemanticNode
p368
(dp369
g9
I3
sg10
Nsg11
g364
sg12
I49
sg13
Nsg14
I00
sg15
I1
sg16
(lp370
I49
asg18
I13
sg19
(lp371
(iSemanticNode
SemanticNode
p372
(dp373
g9
Nsg10
I00
sg11
g368
sg12
Nsg13
I1
sg14
I01
sg15
I9
sg16
(lp374
sg18
I9
sg19
Nsbasbasba(iSemanticNode
SemanticNode
p375
(dp376
g9
I12
sg10
I01
sg11
Nsg12
Nsg13
I1
sg14
I01
sg15
I14
sg16
(lp377
sg18
I1
sg19
(lp378
(iSemanticNode
SemanticNode
p379
(dp380
g9
Nsg10
I00
sg11
g375
sg12
Nsg13
I1
sg14
I01
sg15
I1
sg16
(lp381
sg18
I1
sg19
Nsbasba(iSemanticNode
SemanticNode
p382
(dp383
g9
I25
sg10
I01
sg11
Nsg12
Nsg13
I1
sg14
I01
sg15
I13
sg16
(lp384
sg18
I9
sg19
(lp385
(iSemanticNode
SemanticNode
p386
(dp387
g9
I3
sg10
Nsg11
g382
sg12
I50
sg13
Nsg14
I00
sg15
I1
sg16
(lp388
I50
asg18
I13
sg19
(lp389
(iSemanticNode
SemanticNode
p390
(dp391
g9
Nsg10
I01
sg11
g386
sg12
Nsg13
I2
sg14
I01
sg15
I9
sg16
(lp392
sg18
I1
sg19
(lp393
(iSemanticNode
SemanticNode
p394
(dp395
g9
Nsg10
I00
sg11
g390
sg12
Nsg13
I1
sg14
I01
sg15
I0
sg16
(lp396
sg18
I9
sg19
(lp397
(iSemanticNode
SemanticNode
p398
(dp399
g9
Nsg10
I00
sg11
g394
sg12
Nsg13
I2
sg14
I01
sg15
I1
sg16
(lp400
sg18
I1
sg19
Nsbasbasbasbasba(iSemanticNode
SemanticNode
p401
(dp402
g9
I26
sg10
I01
sg11
Nsg12
Nsg13
I1
sg14
I01
sg15
I17
sg16
(lp403
sg18
I9
sg19
(lp404
(iSemanticNode
SemanticNode
p405
(dp406
g9
Nsg10
I00
sg11
g401
sg12
Nsg13
I1
sg14
I01
sg15
I9
sg16
(lp407
sg18
I9
sg19
Nsbasba(iSemanticNode
SemanticNode
p408
(dp409
g9
I27
sg10
I01
sg11
Nsg12
Nsg13
I1
sg14
I01
sg15
I17
sg16
(lp410
sg18
I9
sg19
(lp411
(iSemanticNode
SemanticNode
p412
(dp413
g9
Nsg10
I00
sg11
g408
sg12
Nsg13
I1
sg14
I01
sg15
I9
sg16
(lp414
sg18
I9
sg19
Nsbasba(iSemanticNode
SemanticNode
p415
(dp416
g9
I3
sg10
Nsg11
Nsg12
I2
sg13
Nsg14
I00
sg15
I1
sg16
(lp417
I2
asg18
I1
sg19
Nsba(iSemanticNode
SemanticNode
p418
(dp419
g9
I3
sg10
Nsg11
Nsg12
I3
sg13
Nsg14
I00
sg15
I1
sg16
(lp420
I3
asg18
I1
sg19
Nsba(iSemanticNode
SemanticNode
p421
(dp422
g9
I3
sg10
Nsg11
Nsg12
I4
sg13
Nsg14
I00
sg15
I1
sg16
(lp423
I4
asg18
I1
sg19
Nsba(iSemanticNode
SemanticNode
p424
(dp425
g9
I3
sg10
Nsg11
Nsg12
I5
sg13
Nsg14
I00
sg15
I1
sg16
(lp426
I5
asg18
I1
sg19
Nsba(iSemanticNode
SemanticNode
p427
(dp428
g9
I3
sg10
Nsg11
Nsg12
I6
sg13
Nsg14
I00
sg15
I1
sg16
(lp429
I6
asg18
I1
sg19
Nsba(iSemanticNode
SemanticNode
p430
(dp431
g9
I3
sg10
Nsg11
Nsg12
I7
sg13
Nsg14
I00
sg15
I1
sg16
(lp432
I7
asg18
I1
sg19
Nsba(iSemanticNode
SemanticNode
p433
(dp434
g9
I3
sg10
Nsg11
Nsg12
I8
sg13
Nsg14
I00
sg15
I1
sg16
(lp435
I8
asg18
I1
sg19
Nsba(iSemanticNode
SemanticNode
p436
(dp437
g9
I3
sg10
Nsg11
Nsg12
I9
sg13
Nsg14
I00
sg15
I1
sg16
(lp438
I9
asg18
I1
sg19
Nsba(iSemanticNode
SemanticNode
p439
(dp440
g9
I3
sg10
Nsg11
Nsg12
I10
sg13
Nsg14
I00
sg15
I1
sg16
(lp441
I10
asg18
I1
sg19
Nsba(iSemanticNode
SemanticNode
p442
(dp443
g9
I3
sg10
Nsg11
Nsg12
I11
sg13
Nsg14
I00
sg15
I1
sg16
(lp444
I11
asg18
I1
sg19
Nsba(iSemanticNode
SemanticNode
p445
(dp446
g9
I3
sg10
Nsg11
Nsg12
I12
sg13
Nsg14
I00
sg15
I1
sg16
(lp447
I12
asg18
I1
sg19
Nsba(iSemanticNode
SemanticNode
p448
(dp449
g9
I3
sg10
Nsg11
Nsg12
I13
sg13
Nsg14
I00
sg15
I1
sg16
(lp450
I13
asg18
I1
sg19
Nsba(iSemanticNode
SemanticNode
p451
(dp452
g9
I3
sg10
Nsg11
Nsg12
I14
sg13
Nsg14
I00
sg15
I1
sg16
(lp453
I14
asg18
I1
sg19
Nsba(iSemanticNode
SemanticNode
p454
(dp455
g9
I3
sg10
Nsg11
Nsg12
I15
sg13
Nsg14
I00
sg15
I1
sg16
(lp456
I15
asg18
I1
sg19
Nsba(iSemanticNode
SemanticNode
p457
(dp458
g9
I3
sg10
Nsg11
Nsg12
I16
sg13
Nsg14
I00
sg15
I1
sg16
(lp459
I16
asg18
I1
sg19
Nsba(iSemanticNode
SemanticNode
p460
(dp461
g9
I3
sg10
Nsg11
Nsg12
I17
sg13
Nsg14
I00
sg15
I1
sg16
(lp462
I17
asg18
I1
sg19
Nsba(iSemanticNode
SemanticNode
p463
(dp464
g9
I3
sg10
Nsg11
Nsg12
I18
sg13
Nsg14
I00
sg15
I1
sg16
(lp465
I18
asg18
I1
sg19
Nsba(iSemanticNode
SemanticNode
p466
(dp467
g9
I3
sg10
Nsg11
Nsg12
I19
sg13
Nsg14
I00
sg15
I1
sg16
(lp468
I19
asg18
I1
sg19
Nsba(iSemanticNode
SemanticNode
p469
(dp470
g9
I3
sg10
Nsg11
Nsg12
I20
sg13
Nsg14
I00
sg15
I1
sg16
(lp471
I20
asg18
I1
sg19
Nsba(iSemanticNode
SemanticNode
p472
(dp473
g9
I3
sg10
Nsg11
Nsg12
I21
sg13
Nsg14
I00
sg15
I1
sg16
(lp474
I21
asg18
I1
sg19
Nsba(iSemanticNode
SemanticNode
p475
(dp476
g9
I3
sg10
Nsg11
Nsg12
I22
sg13
Nsg14
I00
sg15
I1
sg16
(lp477
I22
asg18
I1
sg19
Nsba(iSemanticNode
SemanticNode
p478
(dp479
g9
I3
sg10
Nsg11
Nsg12
I23
sg13
Nsg14
I00
sg15
I1
sg16
(lp480
I23
asg18
I1
sg19
Nsba(iSemanticNode
SemanticNode
p481
(dp482
g9
I3
sg10
Nsg11
Nsg12
I24
sg13
Nsg14
I00
sg15
I1
sg16
(lp483
I24
asg18
I1
sg19
Nsba(iSemanticNode
SemanticNode
p484
(dp485
g9
I15
sg10
Nsg11
Nsg12
I53
sg13
Nsg14
I00
sg15
I9
sg16
(lp486
I53
asg18
I9
sg19
NsbasS'generator_should_flush'
p487
I01
sS'reverse_entries'
p488
(lp489
(lp490
I0
aa(lp491
I1
aa(lp492
I2
aa(lp493
I3
aa(lp494
I3
aa(lp495
I4
aa(lp496
I5
aI6
aI7
aI8
aa(lp497
I9
aa(lp498
I10
aa(lp499
I11
aa(lp500
I12
aa(lp501
I13
aa(lp502
I13
aa(lp503
I13
aa(lp504
I13
aa(lp505
I7
aa(lp506
I7
aa(lp507
I14
aI15
aI16
aa(lp508
I17
aa(lp509
I18
aa(lp510
I19
aa(lp511
I20
aa(lp512
I21
aa(lp513
I22
aa(lp514
I23
aa(lp515
I23
aa(lp516
I23
aI24
aa(lp517
I24
aa(lp518
I24
aa(lp519
I24
aa(lp520
I25
aa(lp521
I26
aa(lp522
I27
aa(lp523
I28
aa(lp524
I29
aa(lp525
I30
aa(lp526
I31
aa(lp527
I32
aa(lp528
I33
aa(lp529
I34
aa(lp530
I35
aa(lp531
I36
aa(lp532
I37
aa(lp533
I38
aa(lp534
I39
aa(lp535
I40
aa(lp536
I41
aa(lp537
I42
aa(lp538
I43
aa(lp539
I44
aa(lp540
I45
aa(lp541
I46
aa(lp542
I47
aa(lp543
I50
aasS'category_consumes'
p544
(lp545
(lp546
(lp547
I1
aI1
aa(lp548
I1
aI3
aa(lp549
I1
aI13
aa(lp550
I1
aI15
aa(lp551
I1
aI12
aaa(lp552
(lp553
I1
aI3
aaa(lp554
(lp555
I1
aI3
aa(lp556
I1
aI1
aaa(lp557
(lp558
I0
aI3
aa(lp559
I1
aI3
aa(lp560
I1
aI15
aaa(lp561
a(lp562
(lp563
I1
aI3
aaa(lp564
a(lp565
(lp566
I1
aI3
aaa(lp567
a(lp568
a(lp569
a(lp570
a(lp571
(lp572
I1
aI12
aaa(lp573
(lp574
I1
aI3
aa(lp575
I0
aI3
aa(lp576
I1
aI13
aaa(lp577
a(lp578
(lp579
I1
aI15
aaa(lp580
(lp581
I1
aI3
aaa(lp582
a(lp583
(lp584
I1
aI3
aaa(lp585
a(lp586
(lp587
I0
aI3
aaa(lp588
a(lp589
a(lp590
(lp591
I0
aI13
aaa(lp592
a(lp593
a(lp594
a(lp595
asS'surface_forms'
p596
(lp597
S'search'
p598
aS'ask'
p599
aS'remind'
p600
aS'bring'
p601
aS'walk'
p602
aS'for'
p603
aS'of'
p604
aS'in'
p605
aS'about'
p606
aS'yes'
p607
aS'no'
p608
aS"'s office"
p609
aS'office of'
p610
aS'is'
p611
aS'where is'
p612
aS'who is'
p613
aS'which is'
p614
aS'room'
p615
aS'person'
p616
aS'group'
p617
aS'and'
p618
aS'or'
p619
aS'not'
p620
aS'the'
p621
aS'a'
p622
aS'peter'
p623
aS'ray'
p624
aS'dana'
p625
aS'kazunori'
p626
aS'matteo'
p627
aS'shiqi'
p628
aS'jivko'
p629
aS'stacy'
p630
aS'yuqian'
p631
aS'max'
p632
aS'pato'
p633
aS'bwi'
p634
aS'bwi meeting'
p635
aS'3516'
p636
aS'3508'
p637
aS'3512'
p638
aS'3510'
p639
aS'3402'
p640
aS'3418'
p641
aS'3420'
p642
aS'3432'
p643
aS'3502'
p644
aS'3414b'
p645
aS'which'
p646
aS'meeting'
p647
aS"'s"
p648
aS'office'
p649
aS'check'
p650
aS'where'
p651
aS'to'
p652
asS'entries'
p653
(lp654
(lp655
I0
aa(lp656
I1
aa(lp657
I2
aa(lp658
I3
aI4
aa(lp659
I5
aa(lp660
I6
aa(lp661
I6
aa(lp662
I6
aI15
aI16
aa(lp663
I6
aa(lp664
I7
aa(lp665
I8
aa(lp666
I9
aa(lp667
I10
aa(lp668
I11
aI12
aI13
aI14
aa(lp669
I17
aa(lp670
I17
aa(lp671
I17
aa(lp672
I18
aa(lp673
I19
aa(lp674
I20
aa(lp675
I21
aa(lp676
I22
aa(lp677
I23
aa(lp678
I24
aI25
aI26
aa(lp679
I27
aI28
aI29
aI26
aa(lp680
I30
aa(lp681
I31
aa(lp682
I32
aa(lp683
I33
aa(lp684
I34
aa(lp685
I35
aa(lp686
I36
aa(lp687
I37
aa(lp688
I38
aa(lp689
I39
aa(lp690
I40
aa(lp691
I41
aa(lp692
I42
aa(lp693
I43
aa(lp694
I44
aa(lp695
I45
aa(lp696
I46
aa(lp697
I47
aa(lp698
I48
aa(lp699
I49
aa(lp700
I50
aa(lp701
I51
aa(lp702
I52
aa(lp703
a(lp704
a(lp705
I53
aa(lp706
a(lp707
I0
aa(lp708
a(lp709
I6
aasS'sem_form_expected_args'
p710
(lp711
I2
aI2
aI3
aI2
aI2
aI1
aI1
aI0
aI0
aI1
aI1
aI1
aI2
aI2
aI2
aI2
aI1
aI1
aI0
aI0
aI0
aI2
aI2
aI1
aI1
aI1
aI1
aI1
aI1
aI2
aI0
aI0
aI0
aI0
aI0
aI0
aI0
aI0
aI0
aI0
aI0
aI0
aI0
aI0
aI0
aI0
aI0
aI0
aI0
aI0
aI0
aI0
aI0
aI0
asS'ontology'
p712
(iOntology
Ontology
p713
(dp714
S'preds'
p715
(lp716
S'yes'
p717
aS'no'
p718
aS'peter'
p719
aS'ray'
p720
aS'dana'
p721
aS'kazunori'
p722
aS'matteo'
p723
aS'shiqi'
p724
aS'jivko'
p725
aS'stacy'
p726
aS'yuqian'
p727
aS'max'
p728
aS'pato'
p729
aS'bwi'
p730
aS'bwi_m'
p731
aS'l3_516'
p732
aS'l3_508'
p733
aS'l3_512'
p734
aS'l3_510'
p735
aS'l3_402'
p736
aS'l3_418'
p737
aS'l3_420'
p738
aS'l3_432'
p739
aS'l3_502'
p740
aS'l3_414b'
p741
aS'searchroom'
p742
aS'askperson'
p743
aS'remind'
p744
aS'speak_t'
p745
aS'speak_e'
p746
aS'at'
p747
aS'bring'
p748
aS'inroom'
p749
aS'person'
p750
aS'room'
p751
aS'canbeinroom'
p752
aS'inoffice'
p753
aS'hasoffice'
p754
aS'ingdc'
p755
aS'know'
p756
aS'canknow'
p757
aS'inmeeting'
p758
aS'ingroup'
p759
aS'group'
p760
aS'inmeetingornowhere'
p761
aS'allinmeeting'
p762
aS'and'
p763
aS'or'
p764
aS'not'
p765
aS'the'
p766
ag622
aS'equals'
p767
aS'UNK_E'
p768
aS"'s"
p769
asS'num_args'
p770
(lp771
I0
aI0
aI0
aI0
aI0
aI0
aI0
aI0
aI0
aI0
aI0
aI0
aI0
aI0
aI0
aI0
aI0
aI0
aI0
aI0
aI0
aI0
aI0
aI0
aI0
aI2
aI2
aI3
aI1
aI1
aI1
aI2
aI2
aI1
aI1
aI2
aI1
aI2
aI1
aI2
aI2
aI2
aI2
aI1
aI2
aI1
aI2
aI2
aI1
aI1
aI1
aI2
aI0
aI1
asS'types'
p772
(lp773
S't'
p774
aS'e'
p775
aS'd'
p776
ag622
aS'c'
p777
a(lp778
I1
aI3
aa(lp779
I1
aI5
aa(lp780
I1
aI6
aa(lp781
I0
aI3
aa(lp782
I1
aI0
aa(lp783
I1
aI9
aa(lp784
I0
aI0
aa(lp785
I0
aI11
aa(lp786
I9
aI1
aa(lp787
I1
aI1
aa(lp788
I9
aI3
aa(lp789
I1
aI15
aa(lp790
I9
aI9
aa(lp791
I1
aI14
aa(lp792
I1
aI18
aa(lp793
I3
aI3
aa(lp794
I3
aI20
aa(lp795
I9
aI17
aasg653
(lp796
I4
aI4
aI1
aI1
aI1
aI1
aI1
aI1
aI1
aI1
aI1
aI1
aI1
aI1
aI1
aI1
aI1
aI1
aI1
aI1
aI1
aI1
aI1
aI1
aI1
aI6
aI6
aI7
aI8
aI5
aI5
aI6
aI10
aI9
aI9
aI10
aI9
aI10
aI9
aI10
aI10
aI10
aI10
aI9
aI10
aI9
aI12
aI12
aI11
aI13
aI13
aI10
aI1
aI9
asbsS'pred_to_surface'
p797
(dp798
I0
(lp799
I9
asI1
(lp800
I10
asI2
(lp801
I25
asI3
(lp802
I26
asI4
(lp803
I27
asI5
(lp804
I28
asI6
(lp805
I29
asI7
(lp806
I30
asI8
(lp807
I31
asI9
(lp808
I32
asI10
(lp809
I33
asI11
(lp810
I34
asI12
(lp811
I35
asI13
(lp812
I36
asI14
(lp813
I37
asI15
(lp814
I38
asI16
(lp815
I39
asI17
(lp816
I40
asI18
(lp817
I41
asI19
(lp818
I42
asI20
(lp819
I43
asI21
(lp820
I44
asI22
(lp821
I45
asI23
(lp822
I46
asI24
(lp823
I47
asI25
(lp824
I0
asI26
(lp825
I1
asI27
(lp826
I2
asI28
(lp827
I13
aI13
aI13
aI13
asI29
(lp828
I14
aI15
aI16
asI30
(lp829
I4
asI31
(lp830
I3
aI3
asI32
(lp831
I7
asI33
(lp832
I18
asI34
(lp833
I17
asI36
(lp834
I7
asI37
(lp835
I11
aI12
asI43
(lp836
I19
asI46
(lp837
I20
asI47
(lp838
I21
asI48
(lp839
I22
asI49
(lp840
I11
aI23
aI23
asI50
(lp841
I24
asI51
(lp842
I13
asI53
(lp843
I50
assS'sem_form_return_cat'
p844
(lp845
I0
aI0
aI0
aI0
aI0
aI0
aI1
aI10
aI10
aI3
aI3
aI0
aI0
aI0
aI0
aI13
aI13
aI0
aI15
aI15
aI15
aI13
aI13
aI13
aI3
aI3
aI3
aI3
aI15
aI3
aI3
aI3
aI3
aI3
aI3
aI3
aI3
aI3
aI3
aI3
aI3
aI3
aI3
aI3
aI3
aI3
aI3
aI3
aI3
aI3
aI3
aI3
aI3
aI15
asS'categories'
p846
(lp847
S'M'
p848
aS'PP'
p849
a(lp850
I0
aI1
aI1
aaS'N'
p851
a(lp852
I2
aI1
aI3
aa(lp853
I2
aI1
aI1
aa(lp854
I5
aI1
aI3
aa(lp855
I0
aI1
aI3
aa(lp856
I7
aI1
aI3
aa(lp857
I1
aI1
aI3
aaS'C'
p858
a(lp859
I3
aI0
aI3
aa(lp860
I3
aI1
aI3
aaS'I'
p861
a(lp862
I0
aI1
aI13
aaS'DESC'
p863
a(lp864
I0
aI1
aI15
aa(lp865
I16
aI1
aI3
aa(lp866
I0
aI1
aI12
aa(lp867
I18
aI1
aI3
aa(lp868
I13
aI1
aI3
aa(lp869
I20
aI0
aI3
aa(lp870
I13
aI0
aI3
aa(lp871
I13
aI1
aI13
aa(lp872
I23
aI0
aI13
aa(lp873
I3
aI1
aI15
aa(lp874
I15
aI1
aI15
aa(lp875
I12
aI1
aI12
aasbsS'learner'
p876
(iLinearLearner
LinearLearner
p877
(dp878
g2
g3
sS'theta'
p879
(dp880
S'form_features'
p881
(dp882
S'category_bigrams'
p883
(dp884
I0
(dp885
I0
F0.0
sI1
F0.0
sI2
F0.0
sI3
F0.0
sI4
F0.0
sI6
F0.0
sNF0.0
sI8
F0.0
sI9
F0.0
sI11
F0.0
sI12
F0.0
sI13
F0.0
sI15
F0.0
sI17
F0.0
sI19
F0.0
sI20
F0.0
sI21
F0.0
sI22
F0.0
sI25
F0.0
sI26
F0.0
sI27
F0.0
sI7
F0.0
ssI1
(dp886
I0
F0.0
sI1
F0.00880608847265473
sI2
F0.0
sI3
F0.016399210921926685
sI4
F0.0
sI5
F0.0
sI6
F0.0
sNF0.037110061299343314
sI8
F0.0
sI9
F0.016399210921926685
sI11
F0.0065748731356878205
sI12
F0.0
sI13
F0.0
sI15
F0.0
sI17
F0.0
sI18
F0.0
sI19
F0.0
sI20
F0.0
sI21
F0.0
sI22
F0.0
sI7
F0.0
ssI2
(dp887
I0
F0.0
sI1
F0.061754826978771875
sI2
F0.0
sI3
F0.020518849864151974
sI4
F0.0
sI5
F0.0
sI6
F0.0
sNF0.02694682837030782
sI8
F0.0
sI9
F0.015194878489152472
sI11
F0.0
sI12
F0.0
sI13
F0.0
sI15
F0.0
sI16
F0.0
sI17
F0.0
sI18
F0.0
sI19
F0.0
sI20
F0.0
sI21
F0.0
sI22
F0.0
sI25
F0.0
sI26
F0.0
sI27
F0.0
sI7
F0.0
ssI3
(dp888
I0
F0.0
sI1
F0.04090523831550717
sI2
F0.0
sI3
F-0.029796733591441284
sI4
F0.0
sI5
F0.0
sI6
F0.0
sNF-0.03352499998758897
sI8
F0.0
sI9
F-0.005165505174537163
sI11
F-0.014845454093362537
sI12
F-0.0015383231866212428
sI13
F0.0
sI15
F0.0
sI16
F0.0
sI17
F0.0
sI18
F0.0
sI19
F0.0
sI20
F0.0
sI21
F-0.008819719603295126
sI22
F0.0
sI23
F0.0
sI24
F0.0
sI25
F0.0
sI26
F0.0
sI27
F0.0
sI7
F0.0
ssI4
(dp889
I0
F0.0
sI1
F0.03146432078921005
sI2
F0.0
sI3
F0.03146432078921005
sNF0.0
sI9
F0.0
sI11
F0.010539044270938868
sI12
F0.0
sI15
F0.0
sI21
F0.0
sI22
F0.0
ssI5
(dp890
I0
F0.0
sI1
F-0.027182072462631907
sI2
F0.0
sI3
F-0.0526193424332263
sI4
F0.0
sI5
F0.0
sI6
F0.0
sNF-0.01818018333736304
sI8
F0.0
sI9
F-0.0526193424332263
sI11
F-0.018365243311847843
sI12
F-0.004464285714285714
sI13
F0.0
sI15
F0.0
sI16
F0.0
sI17
F0.0
sI18
F0.0
sI19
F0.0
sI20
F0.0
sI21
F0.0
sI22
F0.0
sI23
F0.0
sI24
F0.0
sI25
F0.0
sI26
F0.0
sI27
F0.0
sI7
F0.0
ssI6
(dp891
I0
F0.0
sI1
F0.03265520324058284
sI2
F0.0
sI3
F0.01639492189662144
sI4
F0.0
sI5
F0.0
sI6
F0.0
sNF0.002845576149388164
sI8
F0.0
sI9
F0.009301870755300267
sI11
F-0.00698450403188729
sI12
F0.0
sI13
F0.0
sI15
F0.0
sI16
F0.0
sI17
F0.0
sI18
F0.0
sI19
F0.0
sI20
F0.0
sI21
F0.0
sI22
F0.0
sI23
F0.0
sI24
F0.0
sI25
F0.0
sI7
F0.0
ssN(dp892
I0
F0.0
sI1
F0.02717481327828114
sI2
F0.0
sI3
F-0.02107856527787707
sI4
F0.0
sI5
F0.0
sI6
F0.0
sI7
F0.0
sI8
F0.0
sI9
F0.011050694585640107
sI11
F-0.019977473609525637
sI12
F-0.017128705401160974
sI13
F0.0
sI14
F0.0
sI15
F0.0
sI16
F0.0
sI17
F0.0
sI18
F0.0
sI19
F0.0
sI20
F-0.002692065576587175
sI21
F-0.010973372064564866
sI22
F0.0
sI23
F0.0
sI24
F0.0
sI25
F0.0
sI26
F0.0
sI27
F0.0
sNF-0.03632873215837573
ssI8
(dp893
I1
F0.0
sI3
F0.0
sNF0.0
sI9
F0.0
sI11
F0.0
sI12
F0.0
sI15
F0.0
sI25
F0.0
sI26
F0.0
sI27
F0.0
ssI9
(dp894
I0
F0.0
sI1
F-0.02321428571428571
sI2
F0.0
sI3
F-0.027226508865041008
sI4
F0.0
sI5
F0.0
sI6
F0.0
sNF-0.01119046052448127
sI8
F0.0
sI9
F-0.012185673911980503
sI11
F-0.02248035920765077
sI12
F-0.004464285714285714
sI13
F0.0
sI15
F0.0
sI16
F0.0
sI17
F0.0
sI18
F0.0
sI19
F0.0
sI20
F0.0
sI21
F0.0
sI22
F0.0
sI23
F0.0
sI24
F0.0
sI25
F0.0
sI26
F0.0
sI27
F0.0
sI7
F0.0
ssI11
(dp895
I0
F0.0
sI1
F0.003396187128081724
sI2
F0.0
sI3
F0.0
sNF0.0
sI9
F0.0
sI11
F0.0
sI12
F0.0
sI15
F0.0
ssI12
(dp896
I0
F0.0
sI1
F0.0
sI2
F0.0
sI3
F-0.01903124731577316
sI4
F0.0
sI5
F0.0
sI6
F0.0
sNF-0.018516344742204205
sI8
F0.0
sI9
F-0.004464285714285714
sI11
F-0.004464285714285714
sI12
F0.0
sI13
F0.0
sI15
F0.0
sI16
F0.0
sI17
F0.0
sI18
F0.0
sI19
F0.0
sI20
F0.0
sI21
F-0.0015383231866212428
sI22
F0.0
sI23
F0.0
sI24
F0.0
sI25
F0.0
sI26
F0.0
sI27
F0.0
sI7
F0.0
ssI13
(dp897
I0
F0.0
sI1
F0.0
sI2
F0.0
sI3
F0.0
sI4
F0.0
sI5
F0.0
sI6
F0.0
sNF0.0
sI8
F0.0
sI9
F0.0
sI11
F0.0
sI12
F0.0
sI13
F0.0
sI15
F0.0
sI16
F0.0
sI17
F0.0
sI18
F0.0
sI19
F0.0
sI20
F0.0
sI21
F0.0
sI22
F0.0
sI24
F0.0
sI25
F0.0
sI26
F0.0
sI27
F0.0
sI7
F0.0
ssI14
(dp898
I3
F0.0
sNF0.0
sI11
F0.0
sI12
F0.0
sI13
F0.0
sI15
F0.0
sI20
F0.0
sI21
F0.0
sI22
F0.0
sI25
F0.0
sI26
F0.0
sI27
F0.0
ssI15
(dp899
I0
F0.0
sI1
F0.0
sI2
F0.0
sI3
F0.0
sNF0.0
sI9
F0.0
sI12
F0.0
sI15
F0.0
ssI16
(dp900
I0
F0.0
sI1
F0.0
sI2
F0.0
sI3
F0.0
sNF0.0
sI9
F0.0
sI11
F0.0
sI12
F0.0
sI15
F0.04380290060087922
sI25
F0.0
sI26
F0.017521160240351687
sI27
F0.0
ssI17
(dp901
I1
F0.0
sI3
F-0.050577728062495234
sNF0.0
sI9
F0.0
sI11
F-0.005323971374999499
sI12
F0.0
sI15
F0.0
sI25
F0.0
sI26
F0.0
sI27
F0.0
ssI18
(dp902
I0
F0.0
sI1
F0.0
sI2
F0.0
sI3
F0.0
sNF0.0
sI9
F0.0
sI11
F0.0
sI12
F0.0
sI15
F0.0
sI25
F0.0
sI26
F0.0
sI27
F0.0
ssI19
(dp903
I1
F0.0
sI3
F0.0
sNF0.0
sI9
F0.0
sI11
F0.0
sI12
F0.0
sI15
F0.0
sI25
F0.0
sI26
F0.0
sI27
F0.0
ssI20
(dp904
I0
F0.0
sI1
F0.0
sI2
F0.0
sI3
F-0.002692065576587175
sNF-0.002692065576587175
sI9
F0.0
sI11
F0.0
sI12
F0.0
sI15
F0.0
ssI21
(dp905
I0
F0.0
sI1
F0.0
sI2
F0.0
sI3
F-0.005486686032282433
sNF0.0
sI9
F0.0
sI11
F0.0
sI12
F0.0
sI15
F0.0
ssI22
(dp906
I0
F0.0
sI1
F0.0
sI2
F0.0
sI3
F0.0
sNF0.0
sI9
F0.0
sI11
F0.0
sI12
F0.0
sI15
F0.0
ssI23
(dp907
I1
F0.0
sI3
F0.0
sNF0.0
sI9
F0.0
sI11
F0.0
sI12
F0.0
sI15
F0.0
ssI24
(dp908
I1
F0.0
sI3
F0.0
sNF0.0
sI9
F0.0
sI11
F0.0
sI12
F0.0
sI15
F0.0
ssI25
(dp909
I0
F0.0
sI1
F0.0
sI2
F0.0
sI3
F0.0
sI4
F0.0
sI5
F0.0
sI6
F0.0
sNF0.0
sI8
F0.0
sI9
F0.0
sI11
F0.0
sI12
F0.0
sI13
F0.0
sI15
F0.0
sI16
F0.0
sI17
F0.0
sI18
F0.0
sI19
F0.0
sI20
F0.0
sI21
F0.0
sI22
F0.0
sI23
F0.0
sI24
F0.0
sI25
F0.0
sI26
F0.0
sI27
F0.0
sI7
F0.0
ssI26
(dp910
I3
F0.0
sNF0.0
sI12
F0.0
sI15
F0.017521160240351687
ssI27
(dp911
NF0.0
sI12
F0.0
sI15
F0.0
ssI7
(dp912
I0
F0.0
sI1
F0.0
sI2
F0.0
sI3
F0.05997483825450605
sNF-0.010478884492764014
sI9
F0.0
sI11
F0.012350000888958743
sI12
F0.0
sI15
F0.0
sI25
F0.0
sI26
F0.0
sI27
F0.0
ssssS'action_features'
p913
(dp914
sS'token_features'
p915
(dp916
S'token_bigrams'
p917
(dp918
I0
(dp919
I26
F5.574370523471797e-05
ssI1
(dp920
I25
F7.804118732860515e-05
ssI2
(dp921
I25
F-9.930099810149783e-05
ssI3
(dp922
I25
F0.0001859526114585646
ssI4
(dp923
I54
F4.877574208037823e-05
ssI5
(dp924
I25
F5.574370523471797e-05
sI26
F5.574370523471797e-05
ssI7
(dp925
I31
F-9.930099810149783e-05
ssI8
(dp926
I26
F7.804118732860515e-05
sI23
F-9.930099810149783e-05
ssI13
(dp927
I40
F4.9129356680459524e-05
sI25
F6.503432277383763e-05
sI26
F3.8171918624107484e-05
sI30
F3.8171918624107484e-05
sI23
F1.9934634352248836e-05
ssI17
(dp928
I18
F0.0
ssI23
(dp929
I19
F1.9934634352248836e-05
sI36
F-9.930099810149783e-05
ssI24
(dp930
I17
F3.8171918624107484e-05
sI18
F3.8171918624107484e-05
ssI25
(dp931
I8
F-2.1259810772892672e-05
sI24
F0.0
sI50
F6.503432277383763e-05
sI26
F4.877574208037823e-05
sI54
F0.00013717686937818636
ssI26
(dp932
I24
F3.8171918624107484e-05
sI50
F0.00010487306191517749
ssI30
(dp933
I24
F3.8171918624107484e-05
ssI31
(dp934
I50
F-4.3557292866779835e-05
ssI36
(dp935
I49
F-9.930099810149783e-05
ssI40
(dp936
I26
F4.9129356680459524e-05
ssI48
(dp937
I13
F5.2451795739167656e-05
ssI49
(dp938
I7
F-9.930099810149783e-05
ssI50
(dp939
I51
F0.0001263500918222353
ssI51
(dp940
I5
F0.00011148741046943595
ssI52
(dp941
I31
F5.574370523471797e-05
ssI53
(dp942
I13
F3.251716138691882e-05
ssI54
(dp943
I40
F4.877574208037823e-05
sI26
F0.00013717686937818636
ssssS'token_form_features'
p944
(dp945
S'action_category_co'
p946
(dp947
I00
(dp948
I0
F0.0006826794656008189
sI34
F0.0010950725150219802
sI3
F-0.00041239304942116133
sI7
F-0.00041239304942116133
sI15
F0.0010950725150219802
sI16
F0.0021901450300439605
sI28
F0.0006826794656008189
ssI01
(dp949
I0
F0.002330072603917855
sI33
F0.0010950725150219802
sI3
F0.002470000177791749
sI7
F0.002470000177791749
sI15
F0.0010950725150219802
sI16
F0.0021901450300439605
sI49
F0.0012350000888958746
sI28
F0.002330072603917855
ssI2
(dp950
I0
F0.004113670549289293
sI1
F0.005519234472361866
sI2
F0.006141484627271343
sI3
F0.01021429850325122
sI5
F0.00045654449875505486
sI7
F0.0013437652051740087
sI8
F0.0006130539208097766
sI46
F0.0005499012152378149
sI49
F0.0008919086803740618
sI14
F8.283278697191309e-05
sI25
F0.0003513014756979623
sI26
F0.0008782536892449056
sI27
F0.00021843220867755173
sI31
F0.0026656831756688725
ssI3
(dp951
I0
F0.0038952383406117407
sI1
F0.004113228273127742
sI2
F0.005195309076427459
sI3
F0.007592978708695355
sI7
F0.0013437652051740087
sI8
F0.0003513014756979623
sI49
F0.0003513014756979623
sI25
F0.0003513014756979623
sI26
F0.0008782536892449056
sI31
F0.0026656831756688725
ssI13
(dp952
I0
F0.000897355192195725
sI49
F0.000897355192195725
sI3
F0.000897355192195725
sI29
F0.000897355192195725
ssI14
(dp953
I0
F0.00021843220867755173
sI1
F0.001406006199234124
sI2
F0.0009461755508438839
sI3
F0.002270018318857903
sI5
F0.00045654449875505486
sI8
F0.0006130539208097766
sI46
F0.0005499012152378149
sI49
F0.0005406072046760997
sI14
F8.283278697191309e-05
sI27
F0.00021843220867755173
ssI16
(dp954
I0
F0.0028104118055836983
sI49
F0.0028104118055836983
sI3
F0.0028104118055836983
sI29
F0.0028104118055836983
ssI17
(dp955
I0
F0.0026933113136843774
sI1
F0.0033959142650803013
sI2
F0.0003513014756979623
sI3
F0.004098517216476226
sI49
F0.0003513014756979623
sI25
F0.0003513014756979623
sI30
F0.0023420098379864146
ssI22
(dp956
I0
F0.0005697336843755139
sI1
F0.0024599106263280108
sI2
F0.0012974770265418462
sI3
F0.003675224221649752
sI5
F0.00045654449875505486
sI8
F0.0009643553965077388
sI46
F0.0005499012152378149
sI49
F0.0008919086803740618
sI14
F8.283278697191309e-05
sI25
F0.0003513014756979623
sI27
F0.00021843220867755173
ssI25
(dp957
I0
F0.0007026029513959246
sI1
F0.0021078088541877735
sI2
F0.0007026029513959246
sI3
F0.0031617132812816603
sI8
F0.0003513014756979623
sI49
F0.0007026029513959246
sI25
F0.0007026029513959246
ssI26
(dp958
I0
F0.0008782536892449056
sI1
F0.0013078297823919485
sI26
F0.0008782536892449056
sI3
F0.0017565073784898111
sI2
F0.0017565073784898111
ssI27
(dp959
I0
F0.00021843220867755173
sI1
F0.001406006199234124
sI2
F0.0009461755508438839
sI3
F0.002270018318857903
sI5
F0.00045654449875505486
sI8
F0.0006130539208097766
sI46
F0.0005499012152378149
sI49
F0.0005406072046760997
sI14
F8.283278697191309e-05
sI27
F0.00021843220867755173
ssI28
(dp960
I0
F0.0030127520695186743
sI33
F0.0010950725150219802
sI34
F0.0010950725150219802
sI3
F0.002057607128370588
sI7
F0.002057607128370588
sI15
F0.002190145030043961
sI16
F0.004380290060087922
sI49
F0.0012350000888958746
sI28
F0.0030127520695186743
ssI29
(dp961
I0
F0.0037077669977794232
sI49
F0.0037077669977794232
sI3
F0.0037077669977794232
sI29
F0.0037077669977794232
ssI30
(dp962
I0
F0.0023420098379864146
sI1
F0.0023420098379864146
sI3
F0.0023420098379864146
sI30
F0.0023420098379864146
ssI31
(dp963
I0
F0.0026656831756688725
sI1
F0.0017514940636419068
sI2
F0.003087500222239686
sI3
F0.004431265427413695
sI7
F0.0013437652051740087
sI31
F0.0026656831756688725
sssS'token_surface_pred_co'
p964
(dp965
I0
(dp966
I32
F0.0
sS'None'
p967
F-0.0008921942239948248
sI3
F0.0006245359567963773
sI36
F0.0
sI37
F0.0006245359567963773
sI2
F0.000178438844798965
sI46
F0.0
sI47
F0.0
sI49
F0.0006245359567963773
sI52
F0.0
sI53
F-0.0004460971119974124
sI25
F0.0006245359567963773
sI30
F0.0
ssI1
(dp968
g967
F0.0
sI2
F2.3770759227686577e-05
sI3
F-2.3770759227686577e-05
sI26
F0.0010929379243936603
sI46
F0.0
ssI2
(dp969
I2
F-0.0001414993779166819
sI8
F1.7002693853638134e-05
sI13
F-0.00036954915003695497
sI14
F0.0003865518438905931
sI25
F0.0
sI26
F0.0
sI27
F-3.1152670048959875e-05
sI28
F0.0
sI29
F0.0
sI30
F0.0
sI31
F0.0
sI32
F-0.000110346707867722
sI36
F0.0
sI37
F-0.0001883023895002257
sI46
F-0.00019513189278266694
sI47
F0.0
sI49
F-0.0001883023895002257
sI50
F0.0
sI51
F0.0
sI52
F0.0
sI53
F0.0
sg967
F0.00021683041635586265
ssI3
(dp970
g967
F-0.0002300481458333117
sI3
F0.00030988733523507235
sI37
F0.0
sI2
F0.00041685575175966184
sI46
F0.0
sI49
F0.0
sI51
F0.0
sI25
F0.0
sI26
F0.0
sI27
F0.0
sI28
F0.0
sI29
F0.0
sI31
F0.0028224818733831028
ssI4
(dp971
I17
F0.0004256773527960837
sg967
F0.0
sI30
F0.0004851042508652998
ssI5
(dp972
I32
F0.0
sg967
F-0.0017843884479896495
sI3
F0.0008029748015953423
sI36
F0.0
sI37
F0.0012490719135927547
sI8
F0.0006245359567963773
sI2
F0.000178438844798965
sI46
F0.0
sI47
F0.0
sI49
F0.0012490719135927547
sI51
F0.0
sI52
F0.0
sI53
F-0.0008921942239948248
sI25
F0.0012490719135927547
sI26
F0.0
sI27
F0.0
sI28
F0.0
sI29
F0.0
sI30
F0.0
sI31
F0.0
ssI7
(dp973
I2
F-0.0001414993779166819
sI8
F1.7002693853638134e-05
sI13
F-0.00036954915003695497
sI14
F0.0003865518438905931
sI25
F0.0
sI26
F0.0
sI27
F-3.1152670048959875e-05
sI28
F0.0
sI29
F0.0
sI30
F0.0
sI31
F0.0
sI32
F-0.000110346707867722
sI36
F0.0
sI37
F-0.0001883023895002257
sI46
F-0.00019513189278266694
sI47
F0.0
sI49
F-0.0001883023895002257
sI50
F0.0
sI51
F0.0
sI52
F0.0
sI53
F0.0
sg967
F0.00021683041635586265
ssI8
(dp974
I2
F-0.0001177286186889953
sI3
F-2.3770759227686577e-05
sI8
F1.7002693853638134e-05
sI13
F-0.00036954915003695497
sI14
F0.0003865518438905931
sI25
F0.0
sI26
F0.0010929379243936603
sI27
F-3.1152670048959875e-05
sI28
F0.0
sI29
F0.0
sI30
F0.0
sI31
F0.0
sI32
F-0.000110346707867722
sI36
F0.0
sI37
F-0.0001883023895002257
sI46
F-0.00019513189278266694
sI47
F0.0
sI49
F-0.0001883023895002257
sI50
F0.0
sI51
F0.0
sI52
F0.0
sI53
F0.0
sg967
F0.00021683041635586265
ssI13
(dp975
I32
F0.0
sI33
F0.0005345835825829869
sg967
F-0.0003563890550553246
sI34
F0.0005345835825829869
sI36
F0.0
sI37
F0.002408941977073951
sI3
F-0.0009107816036613834
sI7
F-0.0005345835825829869
sI17
F0.000554392548606059
sI43
F-0.0003722362278737823
sI2
F-0.001214375471548511
sI46
F-0.0017943755374998313
sI49
F0.0020367057492001687
sI50
F-0.0016563466499998443
sI51
F0.001244536986105994
sI52
F0.0
sI53
F0.0
sI28
F0.0016235597137720327
sI29
F0.0031732233988445878
ssI17
(dp976
I33
F0.0
sI34
F0.0005345835825829869
sI7
F-0.0005345835825829869
sI2
F0.0
sg967
F0.0
sI46
F-0.0005521155499999481
sI50
F-0.0008281733249999221
sI51
F0.0
sI28
F0.0005345835825829869
ssI18
(dp977
I33
F0.0005345835825829869
sI34
F0.0
sI3
F-0.0005345835825829869
sI2
F0.0
sI46
F-0.0005521155499999481
sI50
F-0.0008281733249999221
sI51
F0.0
sg967
F0.0
sI28
F0.0005345835825829869
ssI19
(dp978
g967
F0.0
sI43
F-0.0003722362278737823
sI49
F-0.0003722362278737823
sI51
F0.0
sI28
F0.0
sI29
F0.0007444724557475645
ssI23
(dp979
I2
F-0.0001414993779166819
sI8
F1.7002693853638134e-05
sI13
F-0.00036954915003695497
sI14
F0.0003865518438905931
sI25
F0.0
sI26
F0.0
sI27
F-3.1152670048959875e-05
sI28
F0.0
sI29
F0.0007444724557475645
sI30
F0.0
sI31
F0.0
sI32
F-0.000110346707867722
sI36
F0.0
sI37
F-0.0001883023895002257
sI43
F-0.0003722362278737823
sI46
F-0.00019513189278266694
sI47
F0.0
sI49
F-0.000560538617374008
sI50
F0.0
sI51
F0.0
sI52
F0.0
sI53
F0.0
sg967
F0.00021683041635586265
ssI24
(dp980
I33
F0.0005345835825829869
sI34
F0.0005345835825829869
sI3
F-0.0005345835825829869
sI7
F-0.0005345835825829869
sI2
F0.0
sg967
F0.0
sI46
F-0.0011042310999998962
sI50
F-0.0016563466499998443
sI51
F0.0
sI28
F0.0010691671651659738
ssI25
(dp981
I2
F-0.0007368094936788796
sI3
F0.0009106525328037632
sI8
F1.7002693853638134e-05
sI13
F-0.00036954915003695497
sI14
F0.0003865518438905931
sI25
F0.0006245359567963773
sI26
F0.0010929379243936603
sI27
F-3.1152670048959875e-05
sI28
F0.0
sI29
F0.002428750943097023
sI30
F0.0
sI31
F0.0028224818733831028
sI32
F-0.000110346707867722
sI33
F0.0
sI34
F0.0
sI36
F0.0
sI37
F0.0028649845103931744
sI46
F-0.00019513189278266694
sI47
F0.0
sI49
F0.0028649845103931744
sI50
F0.0
sI51
F0.0
sI52
F0.0
sI53
F-0.0004460971119974124
sg967
F-0.0009054119534722737
ssI26
(dp982
I2
F0.0006190653557863133
sI3
F0.0001783097739413448
sI8
F0.0006245359567963773
sI17
F0.000554392548606059
sI25
F0.0012490719135927547
sI26
F0.0010929379243936603
sI27
F0.0
sI28
F0.001088976131189046
sI29
F0.0
sI30
F0.0
sI31
F0.0028224818733831028
sI32
F0.0
sI33
F0.0005345835825829869
sI36
F0.0
sI37
F0.0012292629475696827
sI46
F-0.0012422599874998832
sI47
F0.0
sI49
F0.0012292629475696827
sI50
F-0.0008281733249999221
sI51
F0.001244536986105994
sI52
F0.0
sI53
F-0.0008921942239948248
sg967
F-0.002370825648878286
ssI30
(dp983
I34
F0.0005345835825829869
sI7
F-0.0005345835825829869
sg967
F0.0
sI46
F-0.0005521155499999481
sI50
F-0.0008281733249999221
sI51
F0.0
sI28
F0.0005345835825829869
ssI31
(dp984
I2
F-0.0001414993779166819
sI3
F0.000178438844798965
sI8
F0.0006415386506500155
sI13
F-0.00036954915003695497
sI14
F0.0003865518438905931
sI25
F0.0006245359567963773
sI26
F0.0
sI27
F-3.1152670048959875e-05
sI28
F0.0
sI29
F0.0
sI30
F0.0
sI31
F0.0
sI32
F-0.000110346707867722
sI36
F0.0
sI37
F0.0004362335672961517
sI46
F-0.00019513189278266694
sI47
F0.0
sI49
F0.0004362335672961517
sI50
F0.0
sI51
F0.0
sI52
F0.0
sI53
F-0.0004460971119974124
sg967
F-0.0006753638076389621
ssI36
(dp985
I2
F-0.0001414993779166819
sI8
F1.7002693853638134e-05
sI13
F-0.00036954915003695497
sI14
F0.0003865518438905931
sI25
F0.0
sI26
F0.0
sI27
F-3.1152670048959875e-05
sI28
F0.0
sI29
F0.0
sI30
F0.0
sI31
F0.0
sI32
F-0.000110346707867722
sI36
F0.0
sI37
F-0.0001883023895002257
sI46
F-0.00019513189278266694
sI47
F0.0
sI49
F-0.0001883023895002257
sI50
F0.0
sI51
F0.0
sI52
F0.0
sI53
F0.0
sg967
F0.00021683041635586265
ssI40
(dp986
g967
F-0.0003563890550553246
sI3
F-0.0003761980210783965
sI37
F-1.980896602307193e-05
sI17
F0.0009800699014021427
sI46
F-0.0006901444374999351
sI49
F-1.980896602307193e-05
sI51
F0.001244536986105994
sI52
F0.0
sI53
F0.0
sI28
F0.000554392548606059
sI30
F0.0004851042508652998
ssI48
(dp987
I32
F0.0
sg967
F0.0
sI36
F0.0
sI37
F0.0012143754715485116
sI43
F-0.0003722362278737823
sI2
F-0.0006071877357742555
sI49
F0.0008421392436747293
sI51
F0.0
sI52
F0.0
sI53
F0.0
sI28
F0.0
sI29
F0.001958847927296076
ssI49
(dp988
I2
F-0.0001414993779166819
sI8
F1.7002693853638134e-05
sI13
F-0.00036954915003695497
sI14
F0.0003865518438905931
sI25
F0.0
sI26
F0.0
sI27
F-3.1152670048959875e-05
sI28
F0.0
sI29
F0.0
sI30
F0.0
sI31
F0.0
sI32
F-0.000110346707867722
sI36
F0.0
sI37
F-0.0001883023895002257
sI46
F-0.00019513189278266694
sI47
F0.0
sI49
F-0.0001883023895002257
sI50
F0.0
sI51
F0.0
sI52
F0.0
sI53
F0.0
sg967
F0.00021683041635586265
ssI50
(dp989
I2
F-0.0011774360046662281
sI3
F0.0004267767805169458
sI8
F0.0006415386506500155
sI13
F-0.00036954915003695497
sI14
F0.0003865518438905931
sI17
F0.000554392548606059
sI25
F0.0012490719135927547
sI26
F0.0
sI27
F-3.1152670048959875e-05
sI28
F0.000554392548606059
sI29
F0.002428750943097023
sI30
F0.0
sI31
F0.0
sI32
F-0.000110346707867722
sI36
F0.0
sI37
F0.00346971150116648
sI46
F-0.000885276330282602
sI47
F0.0
sI49
F0.00346971150116648
sI50
F0.0
sI51
F0.001244536986105994
sI52
F0.0
sI53
F-0.0008921942239948248
sg967
F-0.0019239470866891113
ssI51
(dp990
I2
F-0.0011774360046662281
sI3
F0.0004267767805169458
sI8
F0.0006415386506500155
sI13
F-0.00036954915003695497
sI14
F0.0003865518438905931
sI17
F0.000554392548606059
sI25
F0.0012490719135927547
sI26
F0.0
sI27
F-3.1152670048959875e-05
sI28
F0.000554392548606059
sI29
F0.002428750943097023
sI30
F0.0
sI31
F0.0
sI32
F-0.000110346707867722
sI36
F0.0
sI37
F0.00346971150116648
sI46
F-0.000885276330282602
sI47
F0.0
sI49
F0.00346971150116648
sI50
F0.0
sI51
F0.001244536986105994
sI52
F0.0
sI53
F-0.0008921942239948248
sg967
F-0.0019239470866891113
ssI52
(dp991
I32
F0.0
sg967
F-0.0008921942239948248
sI3
F0.000178438844798965
sI36
F0.0
sI37
F0.0006245359567963773
sI8
F0.0006245359567963773
sI46
F0.0
sI47
F0.0
sI49
F0.0006245359567963773
sI51
F0.0
sI52
F0.0
sI53
F-0.0004460971119974124
sI25
F0.0006245359567963773
sI26
F0.0
sI27
F0.0
sI28
F0.0
sI29
F0.0
sI30
F0.0
sI31
F0.0
ssI53
(dp992
g967
F0.0
sI37
F0.0012143754715485116
sI2
F-0.0006071877357742555
sI49
F0.0012143754715485116
sI51
F0.0
sI52
F0.0
sI53
F0.0
sI28
F0.0
sI29
F0.0012143754715485116
ssI54
(dp993
g967
F-0.0002300481458333117
sI3
F-0.0001157900175610113
sI37
F0.0
sI17
F0.0004256773527960837
sI2
F-6.824849910563814e-05
sI46
F0.0
sI49
F0.0
sI51
F0.0
sI25
F0.0
sI26
F0.0
sI27
F0.0
sI28
F0.0
sI29
F0.0
sI30
F0.0004851042508652998
sI31
F0.0010009186660603357
sssS'token_category_co'
p994
(dp995
I0
(dp996
I0
F0.00030111555059825337
sI1
F0.0009033466517947601
sI2
F-0.00012904952168496568
sI3
F0.0010754126807080479
sI36
F0.0
sI32
F0.0
sI12
F-0.00043016507228321905
sI13
F0.0
sI46
F0.0
sI49
F0.00030111555059825337
sI20
F0.0
sI53
F-0.00043016507228321905
sI23
F0.0
sI25
F0.00030111555059825337
sI30
F0.0
sI52
F0.0
ssI1
(dp997
I0
F0.0007026029513959246
sI1
F0.0010462638259135589
sI2
F-0.0006567593443139574
sI3
F-0.000748446558477891
sI46
F0.0
sI26
F0.0007026029513959246
ssI2
(dp998
I0
F0.00011938563158206317
sI1
F0.0007472069787892079
sI2
F0.0001795769044553501
sI3
F0.0003284574321475432
sI5
F-0.0004887343183611259
sI7
F0.0
sI8
F4.94924923126313e-05
sI9
F0.0
sI12
F0.0
sI13
F-0.00012175140518546883
sI14
F3.2740232004708734e-05
sI15
F0.0
sI16
F0.0
sI18
F0.0
sI20
F-4.256230160612135e-05
sI23
F0.0
sI27
F0.00011938563158206317
sI29
F0.0
sI30
F0.0
sI32
F-4.256230160612135e-05
sI36
F0.0
sI46
F3.767506854541417e-05
sI49
F-7.492565797464785e-05
sI50
F0.0
sI52
F0.0
sI53
F0.0
ssI3
(dp999
I0
F0.0020154460486357774
sI1
F0.0014011952509135257
sI2
F-0.0021694216281963156
sI3
F-0.0014178061878252794
sI5
F0.0
sI7
F0.0009579116722398861
sI46
F0.0
sI16
F0.0
sI18
F0.0
sI31
F0.0020154460486357774
ssI4
(dp1000
I0
F0.0017565073784898111
sI17
F-0.002692065576587175
sI3
F0.0017565073784898111
sI30
F0.0017565073784898111
sI1
F0.0017565073784898111
ssI5
(dp1001
I0
F0.0006022311011965067
sI1
F0.0018066933035895201
sI2
F0.0001720660289132877
sI3
F0.0014195447385346232
sI5
F0.0
sI7
F0.0
sI8
F0.00030111555059825337
sI12
F-0.0008603301445664381
sI13
F0.0
sI16
F0.0
sI18
F0.0
sI20
F0.0
sI23
F0.0
sI25
F0.0006022311011965067
sI26
F0.0
sI28
F0.0
sI30
F0.0
sI31
F0.0
sI32
F0.0
sI36
F0.0
sI46
F0.0
sI49
F0.0006022311011965067
sI52
F0.0
sI53
F-0.0008603301445664381
ssI7
(dp1002
I0
F0.00011938563158206317
sI1
F0.0007472069787892079
sI2
F0.0001795769044553501
sI3
F0.0003284574321475432
sI5
F-0.0004887343183611259
sI7
F0.0
sI8
F4.94924923126313e-05
sI9
F0.0
sI12
F0.0
sI13
F-0.00012175140518546883
sI14
F3.2740232004708734e-05
sI15
F0.0
sI16
F0.0
sI18
F0.0
sI20
F-4.256230160612135e-05
sI23
F0.0
sI27
F0.00011938563158206317
sI29
F0.0
sI30
F0.0
sI32
F-4.256230160612135e-05
sI36
F0.0
sI46
F3.767506854541417e-05
sI49
F-7.492565797464785e-05
sI50
F0.0
sI52
F0.0
sI53
F0.0
ssI8
(dp1003
I0
F0.0008219885829779877
sI1
F0.0017934708047027668
sI2
F-0.00047718243985860715
sI3
F-0.00041998912633034783
sI5
F-0.0004887343183611259
sI7
F0.0
sI8
F4.94924923126313e-05
sI9
F0.0
sI12
F0.0
sI13
F-0.00012175140518546883
sI14
F3.2740232004708734e-05
sI15
F0.0
sI16
F0.0
sI18
F0.0
sI20
F-4.256230160612135e-05
sI23
F0.0
sI26
F0.0007026029513959246
sI27
F0.00011938563158206317
sI29
F0.0
sI30
F0.0
sI32
F-4.256230160612135e-05
sI36
F0.0
sI46
F3.767506854541417e-05
sI49
F-7.492565797464785e-05
sI50
F0.0
sI52
F0.0
sI53
F0.0
ssI13
(dp1004
I0
F0.005497515882007092
sI2
F-0.0070260295139592446
sI3
F-0.0032766171877983193
sI7
F-0.000879689777630267
sI12
F0.0
sI13
F0.0
sI15
F0.001752116024035169
sI16
F0.0019957734918204795
sI17
F0.0
sI18
F0.0
sI20
F0.0
sI28
F0.0024376218902640964
sI29
F0.003059893991742995
sI32
F0.0
sI33
F0.0008760580120175845
sI34
F0.0008760580120175845
sI36
F0.0
sI43
F0.0
sI46
F-0.0015084585562498583
sI49
F-0.0003029663944215914
sI50
F-0.0010647942749999
sI52
F0.0
sI53
F0.0
ssI17
(dp1005
I0
F0.0008760580120175845
sI33
F0.0
sI34
F0.0008760580120175845
sI3
F-0.00053239713749995
sI7
F-0.0025943623846057563
sI2
F0.0
sI12
F0.0
sI18
F0.0
sI46
F-0.00053239713749995
sI15
F0.0008760580120175845
sI16
F0.0012197188865352188
sI50
F-0.00053239713749995
sI28
F0.0008760580120175845
ssI18
(dp1006
I0
F0.0008760580120175845
sI33
F0.0008760580120175845
sI2
F0.0
sI3
F-0.0031267595221057065
sI7
F0.0
sI18
F0.0
sI12
F0.0
sI34
F0.0
sI46
F-0.00053239713749995
sI15
F0.0008760580120175845
sI16
F0.0012197188865352188
sI50
F-0.00053239713749995
sI28
F0.0008760580120175845
ssI19
(dp1007
I0
F0.0007178841537565802
sI3
F-0.00143576830751316
sI7
F0.0
sI43
F0.0
sI12
F0.0
sI16
F0.0
sI49
F-0.00143576830751316
sI18
F0.0
sI29
F0.0007178841537565802
ssI23
(dp1008
I0
F0.0008372697853386434
sI1
F0.0007472069787892079
sI2
F0.0001795769044553501
sI3
F-0.0011073108753656168
sI5
F-0.0004887343183611259
sI7
F0.0
sI8
F4.94924923126313e-05
sI9
F0.0
sI12
F0.0
sI13
F-0.00012175140518546883
sI14
F3.2740232004708734e-05
sI15
F0.0
sI16
F0.0
sI18
F0.0
sI20
F-4.256230160612135e-05
sI23
F0.0
sI27
F0.00011938563158206317
sI29
F0.0007178841537565802
sI30
F0.0
sI32
F-4.256230160612135e-05
sI36
F0.0
sI43
F0.0
sI46
F3.767506854541417e-05
sI49
F-0.0015106939654878078
sI50
F0.0
sI52
F0.0
sI53
F0.0
ssI24
(dp1009
I0
F0.001752116024035169
sI33
F0.0008760580120175845
sI34
F0.0008760580120175845
sI3
F-0.0036591566596056568
sI7
F-0.0025943623846057563
sI2
F0.0
sI12
F0.0
sI18
F0.0
sI46
F-0.0010647942749999
sI15
F0.001752116024035169
sI16
F0.002439437773070438
sI50
F-0.0010647942749999
sI28
F0.001752116024035169
ssI25
(dp1010
I0
F0.005480560020198434
sI1
F0.004098012707411053
sI2
F-0.009801683103699135
sI3
F0.0015796272045388352
sI5
F-0.0004887343183611259
sI7
F0.0009579116722398861
sI8
F4.94924923126313e-05
sI9
F0.0
sI12
F-0.00043016507228321905
sI13
F-0.00012175140518546883
sI14
F3.2740232004708734e-05
sI15
F0.0
sI16
F0.0
sI18
F0.0
sI20
F-4.256230160612135e-05
sI23
F0.0
sI25
F0.00030111555059825337
sI26
F0.0007026029513959246
sI27
F0.00011938563158206317
sI28
F0.0
sI29
F0.002342009837986415
sI30
F0.0
sI31
F0.0020154460486357774
sI32
F-4.256230160612135e-05
sI33
F0.0
sI34
F0.0
sI36
F0.0
sI46
F3.767506854541417e-05
sI49
F0.00256819973061002
sI50
F0.0
sI52
F0.0
sI53
F-0.00043016507228321905
ssI26
(dp1011
I0
F0.004881843979474721
sI1
F0.004254152380416605
sI2
F-0.0026541149435969857
sI3
F-0.0043971695885401734
sI5
F0.0
sI7
F0.002672584279215375
sI8
F0.00030111555059825337
sI12
F-0.0008603301445664381
sI13
F0.0
sI15
F0.0008760580120175845
sI16
F0.0007760546052852607
sI17
F0.0
sI18
F0.0
sI20
F0.0
sI23
F0.0
sI25
F0.0006022311011965067
sI26
F0.0007026029513959246
sI28
F0.0015615638782465122
sI30
F0.0
sI31
F0.0020154460486357774
sI32
F0.0
sI33
F0.0008760580120175845
sI36
F0.0
sI46
F-0.0009760614187499083
sI49
F-0.0006069768236983399
sI50
F-0.00053239713749995
sI52
F0.0
sI53
F-0.0008603301445664381
ssI30
(dp1012
I0
F0.0008760580120175845
sI34
F0.0008760580120175845
sI3
F-0.00053239713749995
sI7
F-0.0025943623846057563
sI12
F0.0
sI18
F0.0
sI46
F-0.00053239713749995
sI15
F0.0008760580120175845
sI16
F0.0012197188865352188
sI50
F-0.00053239713749995
sI28
F0.0008760580120175845
ssI31
(dp1013
I0
F0.00042050118218031656
sI1
F0.0016505536305839682
sI2
F0.0004806924550536035
sI3
F0.0006725894899741186
sI5
F-0.0004887343183611259
sI7
F0.0
sI8
F0.00035060804291088467
sI9
F0.0
sI12
F-0.00043016507228321905
sI13
F-0.00012175140518546883
sI14
F3.2740232004708734e-05
sI15
F0.0
sI16
F0.0
sI18
F0.0
sI20
F-4.256230160612135e-05
sI23
F0.0
sI25
F0.00030111555059825337
sI26
F0.0
sI27
F0.00011938563158206317
sI28
F0.0
sI29
F0.0
sI30
F0.0
sI31
F0.0
sI32
F-4.256230160612135e-05
sI36
F0.0
sI46
F3.767506854541417e-05
sI49
F0.00022618989262360552
sI50
F0.0
sI52
F0.0
sI53
F-0.00043016507228321905
ssI36
(dp1014
I0
F0.00011938563158206317
sI1
F0.0007472069787892079
sI2
F0.0001795769044553501
sI3
F0.0003284574321475432
sI5
F-0.0004887343183611259
sI7
F0.0
sI8
F4.94924923126313e-05
sI9
F0.0
sI12
F0.0
sI13
F-0.00012175140518546883
sI14
F3.2740232004708734e-05
sI15
F0.0
sI16
F0.0
sI18
F0.0
sI20
F-4.256230160612135e-05
sI23
F0.0
sI27
F0.00011938563158206317
sI29
F0.0
sI30
F0.0
sI32
F-4.256230160612135e-05
sI36
F0.0
sI46
F3.767506854541417e-05
sI49
F-7.492565797464785e-05
sI50
F0.0
sI52
F0.0
sI53
F0.0
ssI40
(dp1015
I0
F0.002442013244718738
sI1
F0.0017565073784898111
sI3
F0.0012328053198238922
sI49
F-0.0012092079248948464
sI7
F0.0017146726069754894
sI12
F0.0
sI46
F-0.00044366428124995825
sI16
F-0.00044366428124995825
sI17
F-0.002692065576587175
sI18
F0.0
sI52
F0.0
sI53
F0.0
sI28
F0.0006855058662289274
sI30
F0.0017565073784898111
ssI48
(dp1016
I0
F0.0018888890727497875
sI32
F0.0
sI2
F-0.0035130147569796223
sI3
F-0.00026476338851995254
sI36
F0.0
sI7
F0.0
sI43
F0.0
sI12
F0.0
sI13
F0.0
sI16
F0.0
sI49
F-0.00026476338851995254
sI18
F0.0
sI20
F0.0
sI53
F0.0
sI52
F0.0
sI28
F0.0
sI29
F0.0018888890727497875
ssI49
(dp1017
I0
F0.00011938563158206317
sI1
F0.0007472069787892079
sI2
F0.0001795769044553501
sI3
F0.0003284574321475432
sI5
F-0.0004887343183611259
sI7
F0.0
sI8
F4.94924923126313e-05
sI9
F0.0
sI12
F0.0
sI13
F-0.00012175140518546883
sI14
F3.2740232004708734e-05
sI15
F0.0
sI16
F0.0
sI18
F0.0
sI20
F-4.256230160612135e-05
sI23
F0.0
sI27
F0.00011938563158206317
sI29
F0.0
sI30
F0.0
sI32
F-4.256230160612135e-05
sI36
F0.0
sI46
F3.767506854541417e-05
sI49
F-7.492565797464785e-05
sI50
F0.0
sI52
F0.0
sI53
F0.0
ssI50
(dp1018
I0
F0.003749132436993913
sI1
F0.0025539002823787285
sI2
F-0.006674386580590606
sI3
F0.0035663099500026626
sI5
F-0.0004887343183611259
sI7
F0.0017146726069754894
sI8
F0.00035060804291088467
sI9
F0.0
sI12
F-0.0008603301445664381
sI13
F-0.00012175140518546883
sI14
F3.2740232004708734e-05
sI15
F0.0
sI16
F-0.00044366428124995825
sI17
F0.0
sI18
F0.0
sI20
F-4.256230160612135e-05
sI23
F0.0
sI25
F0.0006022311011965067
sI26
F0.0
sI27
F0.00011938563158206317
sI28
F0.0006855058662289274
sI29
F0.002342009837986415
sI30
F0.0
sI31
F0.0
sI32
F-4.256230160612135e-05
sI36
F0.0
sI46
F-0.000405989212704544
sI49
F0.0016601073563134272
sI50
F0.0
sI52
F0.0
sI53
F-0.0008603301445664381
ssI51
(dp1019
I0
F0.003749132436993913
sI1
F0.0025539002823787285
sI2
F-0.006674386580590606
sI3
F0.0035663099500026626
sI5
F-0.0004887343183611259
sI7
F0.0017146726069754894
sI8
F0.00035060804291088467
sI9
F0.0
sI12
F-0.0008603301445664381
sI13
F-0.00012175140518546883
sI14
F3.2740232004708734e-05
sI15
F0.0
sI16
F-0.00044366428124995825
sI17
F0.0
sI18
F0.0
sI20
F-4.256230160612135e-05
sI23
F0.0
sI25
F0.0006022311011965067
sI26
F0.0
sI27
F0.00011938563158206317
sI28
F0.0006855058662289274
sI29
F0.002342009837986415
sI30
F0.0
sI31
F0.0
sI32
F-4.256230160612135e-05
sI36
F0.0
sI46
F-0.000405989212704544
sI49
F0.0016601073563134272
sI50
F0.0
sI52
F0.0
sI53
F-0.0008603301445664381
ssI52
(dp1020
I0
F0.00030111555059825337
sI1
F0.0009033466517947601
sI2
F0.00030111555059825337
sI3
F0.0003441320578265754
sI5
F0.0
sI7
F0.0
sI8
F0.00030111555059825337
sI12
F-0.00043016507228321905
sI13
F0.0
sI16
F0.0
sI18
F0.0
sI20
F0.0
sI23
F0.0
sI25
F0.00030111555059825337
sI26
F0.0
sI28
F0.0
sI30
F0.0
sI31
F0.0
sI32
F0.0
sI36
F0.0
sI46
F0.0
sI49
F0.00030111555059825337
sI52
F0.0
sI53
F-0.00043016507228321905
ssI53
(dp1021
I0
F0.0011710049189932073
sI2
F-0.0035130147569796223
sI3
F0.0011710049189932073
sI7
F0.0
sI12
F0.0
sI16
F0.0
sI49
F0.0011710049189932073
sI18
F0.0
sI52
F0.0
sI53
F0.0
sI28
F0.0
sI29
F0.0011710049189932073
ssI54
(dp1022
I0
F0.0020154460486357774
sI1
F0.003157702629403337
sI2
F0.00040803493068594264
sI3
F0.0012742593887618949
sI5
F0.0
sI7
F-0.0007985957062499249
sI46
F0.0
sI16
F0.0
sI17
F-0.002692065576587175
sI18
F0.0
sI30
F0.0017565073784898111
sI31
F0.0002589386701459663
sssS'action_surface_pred_co'
p1023
(dp1024
I00
(dp1025
g967
F-0.0004276668660663895
sI3
F-0.00021383343303319475
sI7
F0.001703446134478636
sI34
F0.0011356307563190908
sI17
F-0.0004276668660663895
sI18
F0.0005678153781595454
sI51
F-0.0004276668660663895
sI28
F0.001843594646571792
sI31
F-0.00021383343303319475
ssI01
(dp1026
I19
F0.0005678153781595454
sI33
F0.0011356307563190908
sI3
F0.002984186967407691
sI37
F0.001280740832929055
sI17
F0.0019211112493935827
sI9
F0.0006403704164645275
sI49
F0.001280740832929055
sI51
F0.0019211112493935827
sI28
F0.004192372762031764
sI31
F0.0006403704164645275
ssI2
(dp1027
I0
F0.00036431264146455345
sI1
F0.00022274315940957787
sg967
F0.0013151605547937805
sI3
F0.003970381923428937
sI36
F0.0003178798107902545
sI37
F0.0014850847913282109
sI6
F0.0009084824525040386
sI8
F0.0009386158291313808
sI9
F0.0005000361315225313
sI42
F4.2950333985436414e-05
sI2
F0.006652899899968559
sI14
F0.0012135453059361988
sI49
F0.0014850847913282109
sI46
F0.000409237331100085
sI4
F0.00022274315940957787
sI25
F0.00036431264146455345
sI26
F0.0011434292460824975
sI27
F0.00048472423460539285
sI30
F0.0008013595514682394
sI31
F0.005261471156927554
ssI3
(dp1028
I0
F0.00036431264146455345
sI1
F0.00022274315940957787
sI2
F0.004600585362345363
sI3
F0.004152538244161214
sI36
F0.00018215632073227672
sI37
F0.0005464689621968302
sI6
F0.0004652952848422278
sI8
F0.0005464689621968302
sI9
F0.00018215632073227672
sg967
F-0.0002875601822916396
sI49
F0.0005464689621968302
sI4
F0.00022274315940957787
sI25
F0.00036431264146455345
sI26
F0.0011434292460824975
sI30
F0.00044548631881915574
sI31
F0.005079314836195277
ssI13
(dp1029
I49
F0.0009305905696844556
sI43
F0.0009305905696844556
sI29
F0.0004652952848422278
sI17
F0.0004652952848422278
ssI14
(dp1030
g967
F0.00160272073708542
sI36
F0.0003178798107902545
sI37
F0.0009386158291313808
sI6
F0.0004431871676618108
sI8
F0.0009386158291313808
sI9
F0.0003178798107902545
sI42
F4.2950333985436414e-05
sI2
F0.0013236892546940901
sI14
F0.0012135453059361988
sI49
F0.0009386158291313808
sI46
F0.000409237331100085
sI27
F0.00048472423460539285
sI30
F0.00035587323264908363
ssI16
(dp1031
I49
F0.002914501131716427
sI2
F0.002914501131716427
sI17
F0.0014572505658582136
sI37
F0.002914501131716427
sI29
F0.0014572505658582136
ssI17
(dp1032
I0
F0.00036431264146455345
sI2
F0.0007286252829291069
sI3
F0.0005464689621968302
sI5
F0.0012143754715485116
sI49
F0.0005464689621968302
sI9
F0.00018215632073227672
sI17
F0.002428750943097023
sI25
F0.00036431264146455345
sI31
F0.00018215632073227672
sI30
F0.0012143754715485116
sI37
F0.0005464689621968302
ssI22
(dp1033
I0
F0.00036431264146455345
sg967
F0.00160272073708542
sI3
F0.0007286252829291069
sI36
F0.0005000361315225313
sI37
F0.0014850847913282109
sI6
F0.0004431871676618108
sI8
F0.0014850847913282109
sI9
F0.0005000361315225313
sI42
F4.2950333985436414e-05
sI2
F0.0013236892546940901
sI14
F0.0012135453059361988
sI49
F0.0014850847913282109
sI46
F0.000409237331100085
sI25
F0.00036431264146455345
sI27
F0.00048472423460539285
sI30
F0.00035587323264908363
ssI25
(dp1034
I0
F0.0007286252829291068
sI2
F0.0007286252829291069
sI3
F0.001275094245125937
sI36
F0.00018215632073227672
sI37
F0.0010929379243936603
sI8
F0.0005464689621968302
sI9
F0.0003643126414645534
sI49
F0.0010929379243936603
sI25
F0.0007286252829291068
sI31
F0.00018215632073227672
ssI26
(dp1035
I1
F0.00022274315940957787
sI2
F0.0011434292460824975
sI3
F0.0011335247630709614
sI6
F0.0002326476424211139
sI26
F0.0011434292460824975
sI30
F0.00022274315940957787
sI31
F0.0002326476424211139
ssI27
(dp1036
g967
F0.00160272073708542
sI36
F0.0003178798107902545
sI37
F0.0009386158291313808
sI6
F0.0004431871676618108
sI8
F0.0009386158291313808
sI9
F0.0003178798107902545
sI42
F4.2950333985436414e-05
sI2
F0.0013236892546940901
sI14
F0.0012135453059361988
sI49
F0.0009386158291313808
sI46
F0.000409237331100085
sI27
F0.00048472423460539285
sI30
F0.00035587323264908363
ssI28
(dp1037
I19
F0.0005678153781595454
sI33
F0.0011356307563190908
sI34
F0.0011356307563190908
sI3
F0.0027703535343744966
sI17
F0.0014934443833271931
sI37
F0.001280740832929055
sI7
F0.001703446134478636
sI9
F0.0006403704164645275
sg967
F-0.0004276668660663895
sI49
F0.001280740832929055
sI18
F0.0005678153781595454
sI51
F0.0014934443833271931
sI28
F0.006035967408603555
sI31
F0.0004265369834313327
ssI29
(dp1038
I2
F0.002914501131716427
sI37
F0.002914501131716427
sI17
F0.0019225458507004414
sI43
F0.0009305905696844556
sI49
F0.003845091701400883
sI29
F0.0019225458507004414
ssI30
(dp1039
I17
F0.002428750943097023
sI5
F0.0012143754715485116
sI30
F0.0012143754715485116
ssI31
(dp1040
I2
F0.0034571561162628646
sI3
F0.002290388198161145
sI4
F0.00022274315940957787
sI6
F0.0002326476424211139
sg967
F-0.0002875601822916396
sI30
F0.00022274315940957787
sI31
F0.004846667193774163
ssssS'action_form_features'
p1041
(dp1042
ssg712
g713
sS'feature_extractor'
p1043
(iFeatureExtractor
FeatureExtractor
p1044
(dp1045
g2
g3
sg712
g713
sbsbsS'grounder'
p1046
(iKBGrounder
KBGrounder
p1047
(dp1048
g712
g713
sS'parser'
p1049
NsbsS'known_binary_expansions'
p1050
(dp1051
I4453786737815426082
(dp1052
I6023080034918067515
(lp1053
sI37220696893024060
(lp1054
(iSemanticNode
SemanticNode
p1055
(dp1056
g9
I7
sg10
I01
sg11
Nsg12
Nsg13
I1
sg14
I01
sg15
I5
sg16
(lp1057
I7
asg18
I1
sg19
(lp1058
(iSemanticNode
SemanticNode
p1059
(dp1060
g9
I0
sg10
Nsg11
g1055
sg12
I31
sg13
Nsg14
I00
sg15
I3
sg16
(lp1061
I31
asg18
I6
sg19
(lp1062
(iSemanticNode
SemanticNode
p1063
(dp1064
g9
Nsg10
I00
sg11
g1059
sg12
Nsg13
I1
sg14
I01
sg15
I1
sg16
(lp1065
sg18
I1
sg19
Nsba(iSemanticNode
SemanticNode
p1066
(dp1067
g9
I3
sg10
Nsg11
g1059
sg12
I46
sg13
Nsg14
I00
sg15
I1
sg16
(lp1068
I3
asg18
I18
sg19
(lp1069
(iSemanticNode
SemanticNode
p1070
(dp1071
g9
I3
sg10
Nsg11
g1066
sg12
I2
sg13
Nsg14
I00
sg15
I1
sg16
(lp1072
I0
aI3
asg18
I1
sg19
Nsba(iSemanticNode
SemanticNode
p1073
(dp1074
g9
I3
sg10
Nsg11
g1066
sg12
I3
sg13
Nsg14
I00
sg15
I1
sg16
(lp1075
I0
aI3
asg18
I1
sg19
NsbasbasbasbasI7284813778004916437
(lp1076
sI8561510001808944294
(lp1077
(iSemanticNode
SemanticNode
p1078
(dp1079
g9
I7
sg10
I01
sg11
Nsg12
Nsg13
I1
sg14
I01
sg15
I5
sg16
(lp1080
I7
asg18
I1
sg19
(lp1081
(iSemanticNode
SemanticNode
p1082
(dp1083
g9
I0
sg10
Nsg11
g1078
sg12
I31
sg13
Nsg14
I00
sg15
I3
sg16
(lp1084
I31
asg18
I6
sg19
(lp1085
(iSemanticNode
SemanticNode
p1086
(dp1087
g9
Nsg10
I00
sg11
g1082
sg12
Nsg13
I1
sg14
I01
sg15
I1
sg16
(lp1088
sg18
I1
sg19
Nsba(iSemanticNode
SemanticNode
p1089
(dp1090
g9
I3
sg10
Nsg11
g1082
sg12
I2
sg13
Nsg14
I00
sg15
I1
sg16
(lp1091
I3
asg18
I1
sg19
NsbasbasbasI-7400086200983633563
(lp1092
(iSemanticNode
SemanticNode
p1093
(dp1094
g9
I7
sg10
I01
sg11
Nsg12
Nsg13
I1
sg14
I01
sg15
I5
sg16
(lp1095
I7
asg18
I1
sg19
(lp1096
(iSemanticNode
SemanticNode
p1097
(dp1098
g9
I0
sg10
Nsg11
g1093
sg12
I31
sg13
Nsg14
I00
sg15
I3
sg16
(lp1099
I31
asg18
I6
sg19
(lp1100
(iSemanticNode
SemanticNode
p1101
(dp1102
g9
Nsg10
I00
sg11
g1097
sg12
Nsg13
I1
sg14
I01
sg15
I1
sg16
(lp1103
sg18
I1
sg19
Nsba(iSemanticNode
SemanticNode
p1104
(dp1105
g9
I3
sg10
Nsg11
g1097
sg12
I3
sg13
Nsg14
I00
sg15
I1
sg16
(lp1106
I3
asg18
I1
sg19
NsbasbasbassI-9048489110170930491
(dp1107
I6023080034918067515
(lp1108
(iSemanticNode
SemanticNode
p1109
(dp1110
g9
I0
sg10
Nsg12
I31
sg11
Nsg13
Nsg14
I00
sg15
I3
sg16
(lp1111
I31
aI0
asg18
I6
sg19
(lp1112
(iSemanticNode
SemanticNode
p1113
(dp1114
g9
I3
sg10
Nsg12
I2
sg11
g1109
sg13
Nsg14
I00
sg15
I1
sg16
(lp1115
I3
asg18
I1
sg19
Nsba(iSemanticNode
SemanticNode
p1116
(dp1117
g9
I1
sg10
Nsg12
I3
sg11
g1109
sg13
Nsg14
I00
sg15
I1
sg16
(lp1118
I1
asg18
I1
sg19
NsbasbasI7284813778004916437
(lp1119
sI-7400086200983633563
(lp1120
ssI8561510001808944294
(dp1121
I4453786737815426082
(lp1122
sI-7400086200983633563
(lp1123
(iSemanticNode
SemanticNode
p1124
(dp1125
g9
I3
sg10
Nsg11
Nsg12
I46
sg13
Nsg14
I00
sg15
I1
sg16
(lp1126
I46
asg18
I18
sg19
(lp1127
(iSemanticNode
SemanticNode
p1128
(dp1129
g9
I3
sg10
Nsg12
I2
sg11
g1124
sg13
Nsg14
I00
sg15
I1
sg16
(lp1130
I2
asg18
I1
sg19
Nsba(iSemanticNode
SemanticNode
p1131
(dp1132
g9
I3
sg10
Nsg12
I3
sg11
g1124
sg13
Nsg14
I00
sg15
I1
sg16
(lp1133
I3
asg18
I1
sg19
NsbasbasI596615
(lp1134
sI7284813778004916437
(lp1135
sI-2467484976073896233
(lp1136
sI6023080034918067515
(lp1137
ssI-2609264577989957758
(dp1138
I6023080034918067515
(lp1139
sI7284813778004916437
(lp1140
sI-7400086200983633563
(lp1141
(iSemanticNode
SemanticNode
p1142
(dp1143
g9
I0
sg10
Nsg12
I31
sg11
Nsg13
Nsg14
I00
sg15
I3
sg16
(lp1144
I31
aI0
asg18
I6
sg19
(lp1145
(iSemanticNode
SemanticNode
p1146
(dp1147
g9
I3
sg10
Nsg12
I3
sg11
g1142
sg13
Nsg14
I00
sg15
I1
sg16
(lp1148
I3
asg18
I1
sg19
Nsba(iSemanticNode
SemanticNode
p1149
(dp1150
g9
I3
sg10
Nsg12
I2
sg11
g1142
sg13
Nsg14
I00
sg15
I1
sg16
(lp1151
I3
asg18
I1
sg19
NsbasbassI7284813778004916437
(dp1152
I-2609264577989957758
(lp1153
sI-7400086200983633563
(lp1154
(iSemanticNode
SemanticNode
p1155
(dp1156
g9
I1
sg10
Nsg11
Nsg12
I3
sg13
Nsg14
I00
sg15
I1
sg16
(lp1157
I3
aI1
asg18
I1
sg19
NsbasI8561510001808944294
(lp1158
sI596615
(lp1159
sI4453786737815426082
(lp1160
sI-2467484976073896233
(lp1161
sI-9048489110170930491
(lp1162
ssI-2467484976073896233
(dp1163
I6023080034918067515
(lp1164
sI37220696893024060
(lp1165
(iSemanticNode
SemanticNode
p1166
(dp1167
g9
I2
sg10
I01
sg11
Nsg12
Nsg13
I1
sg14
I01
sg15
I5
sg16
(lp1168
I2
asg18
I1
sg19
(lp1169
(iSemanticNode
SemanticNode
p1170
(dp1171
g9
I0
sg10
Nsg11
g1166
sg12
I31
sg13
Nsg14
I00
sg15
I3
sg16
(lp1172
I31
asg18
I6
sg19
(lp1173
(iSemanticNode
SemanticNode
p1174
(dp1175
g9
I3
sg10
Nsg11
g1170
sg12
I46
sg13
Nsg14
I00
sg15
I1
sg16
(lp1176
I3
asg18
I18
sg19
(lp1177
(iSemanticNode
SemanticNode
p1178
(dp1179
g9
I3
sg10
Nsg11
g1174
sg12
I2
sg13
Nsg14
I00
sg15
I1
sg16
(lp1180
I0
aI3
asg18
I1
sg19
Nsba(iSemanticNode
SemanticNode
p1181
(dp1182
g9
I3
sg10
Nsg11
g1174
sg12
I3
sg13
Nsg14
I00
sg15
I1
sg16
(lp1183
I0
aI3
asg18
I1
sg19
Nsbasba(iSemanticNode
SemanticNode
p1184
(dp1185
g9
Nsg10
I00
sg11
g1170
sg12
Nsg13
I1
sg14
I01
sg15
I1
sg16
(lp1186
sg18
I1
sg19
NsbasbasbasI7284813778004916437
(lp1187
sI8561510001808944294
(lp1188
(iSemanticNode
SemanticNode
p1189
(dp1190
g9
I2
sg10
I01
sg11
Nsg12
Nsg13
I1
sg14
I01
sg15
I5
sg16
(lp1191
I2
asg18
I1
sg19
(lp1192
(iSemanticNode
SemanticNode
p1193
(dp1194
g9
I0
sg10
Nsg11
g1189
sg12
I31
sg13
Nsg14
I00
sg15
I3
sg16
(lp1195
I31
asg18
I6
sg19
(lp1196
(iSemanticNode
SemanticNode
p1197
(dp1198
g9
I3
sg10
Nsg11
g1193
sg12
I2
sg13
Nsg14
I00
sg15
I1
sg16
(lp1199
I3
asg18
I1
sg19
Nsba(iSemanticNode
SemanticNode
p1200
(dp1201
g9
Nsg10
I00
sg11
g1193
sg12
Nsg13
I1
sg14
I01
sg15
I1
sg16
(lp1202
sg18
I1
sg19
NsbasbasbasI-7400086200983633563
(lp1203
(iSemanticNode
SemanticNode
p1204
(dp1205
g9
I2
sg10
I01
sg11
Nsg12
Nsg13
I1
sg14
I01
sg15
I5
sg16
(lp1206
I2
asg18
I1
sg19
(lp1207
(iSemanticNode
SemanticNode
p1208
(dp1209
g9
I0
sg10
Nsg11
g1204
sg12
I31
sg13
Nsg14
I00
sg15
I3
sg16
(lp1210
I31
asg18
I6
sg19
(lp1211
(iSemanticNode
SemanticNode
p1212
(dp1213
g9
I3
sg10
Nsg11
g1208
sg12
I3
sg13
Nsg14
I00
sg15
I1
sg16
(lp1214
I3
asg18
I1
sg19
Nsba(iSemanticNode
SemanticNode
p1215
(dp1216
g9
Nsg10
I00
sg11
g1208
sg12
Nsg13
I1
sg14
I01
sg15
I1
sg16
(lp1217
sg18
I1
sg19
NsbasbasbassI6023080034918067515
(dp1218
I-2609264577989957758
(lp1219
sI4453786737815426082
(lp1220
sI-9048489110170930491
(lp1221
sI8561510001808944294
(lp1222
sI-2467484976073896233
(lp1223
ssI37220696893024060
(dp1224
I4453786737815426082
(lp1225
sI596615
(lp1226
sI-2467484976073896233
(lp1227
ssI-7400086200983633563
(dp1228
I4453786737815426082
(lp1229
sI-9048489110170930491
(lp1230
sI8561510001808944294
(lp1231
(iSemanticNode
SemanticNode
p1232
(dp1233
g9
I3
sg10
Nsg11
Nsg12
I46
sg13
Nsg14
I00
sg15
I1
sg16
(lp1234
I46
asg18
I18
sg19
(lp1235
(iSemanticNode
SemanticNode
p1236
(dp1237
g9
I3
sg10
Nsg12
I2
sg11
g1232
sg13
Nsg14
I00
sg15
I1
sg16
(lp1238
I2
asg18
I1
sg19
Nsba(iSemanticNode
SemanticNode
p1239
(dp1240
g9
I3
sg10
Nsg12
I3
sg11
g1232
sg13
Nsg14
I00
sg15
I1
sg16
(lp1241
I3
asg18
I1
sg19
NsbasbasI-2609264577989957758
(lp1242
sI7284813778004916437
(lp1243
sI-2467484976073896233
(lp1244
sssS'safety'
p1245
I01
sS'new_adjectives'
p1246
(lp1247
sS'known_unary_expansions'
p1248
(dp1249
I4453786737815426082
(lp1250
sI-9048489110170930491
(lp1251
sI8561510001808944294
(lp1252
sI-2609264577989957758
(lp1253
sI7284813778004916437
(lp1254
sI-2467484976073896233
(lp1255
sI6023080034918067515
(lp1256
sI37220696893024060
(lp1257
sI-7400086200983633563
(lp1258
ssg712
g713
sS'commutative_idxs'
p1259
(lp1260
I46
aI47
asS'beam_width'
p1261
I10
sb.